Archive member included to satisfy reference by file (symbol)

libs/libarm_cortexM4lf_math.a(arm_fill_q15.o)
                              drivers/audio/audio_driver.o (arm_fill_q15)
libs/libarm_cortexM4lf_math.a(arm_fill_f32.o)
                              drivers/audio/audio_driver.o (arm_fill_f32)
libs/libarm_cortexM4lf_math.a(arm_copy_q15.o)
                              drivers/ui/ui_driver.o (arm_copy_q15)
libs/libarm_cortexM4lf_math.a(arm_copy_f32.o)
                              drivers/audio/audio_driver.o (arm_copy_f32)
libs/libarm_cortexM4lf_math.a(arm_min_q15.o)
                              drivers/ui/ui_driver.o (arm_min_q15)
libs/libarm_cortexM4lf_math.a(arm_min_f32.o)
                              drivers/audio/audio_driver.o (arm_min_f32)
libs/libarm_cortexM4lf_math.a(arm_mean_q15.o)
                              drivers/ui/ui_driver.o (arm_mean_q15)
libs/libarm_cortexM4lf_math.a(arm_mean_f32.o)
                              drivers/audio/audio_driver.o (arm_mean_f32)
libs/libarm_cortexM4lf_math.a(arm_max_q15.o)
                              drivers/ui/ui_driver.o (arm_max_q15)
libs/libarm_cortexM4lf_math.a(arm_max_f32.o)
                              drivers/audio/audio_driver.o (arm_max_f32)
libs/libarm_cortexM4lf_math.a(arm_rfft_init_f32.o)
                              drivers/ui/ui_driver.o (arm_rfft_init_f32)
libs/libarm_cortexM4lf_math.a(arm_rfft_f32.o)
                              drivers/ui/ui_driver.o (arm_rfft_f32)
libs/libarm_cortexM4lf_math.a(arm_cfft_radix4_init_f32.o)
                              libs/libarm_cortexM4lf_math.a(arm_rfft_init_f32.o) (arm_cfft_radix4_init_f32)
libs/libarm_cortexM4lf_math.a(arm_cfft_radix4_f32.o)
                              libs/libarm_cortexM4lf_math.a(arm_rfft_f32.o) (arm_radix4_butterfly_f32)
libs/libarm_cortexM4lf_math.a(arm_lms_norm_init_f32.o)
                              drivers/audio/audio_driver.o (arm_lms_norm_init_f32)
libs/libarm_cortexM4lf_math.a(arm_lms_norm_f32.o)
                              drivers/audio/audio_driver.o (arm_lms_norm_f32)
libs/libarm_cortexM4lf_math.a(arm_iir_lattice_f32.o)
                              drivers/audio/audio_driver.o (arm_iir_lattice_f32)
libs/libarm_cortexM4lf_math.a(arm_fir_interpolate_f32.o)
                              drivers/audio/audio_driver.o (arm_fir_interpolate_f32)
libs/libarm_cortexM4lf_math.a(arm_fir_init_f32.o)
                              drivers/ui/ui_driver.o (arm_fir_init_f32)
libs/libarm_cortexM4lf_math.a(arm_fir_f32.o)
                              drivers/audio/audio_driver.o (arm_fir_f32)
libs/libarm_cortexM4lf_math.a(arm_fir_decimate_f32.o)
                              drivers/audio/audio_driver.o (arm_fir_decimate_f32)
libs/libarm_cortexM4lf_math.a(arm_cmplx_mag_f32.o)
                              drivers/audio/audio_driver.o (arm_cmplx_mag_f32)
libs/libarm_cortexM4lf_math.a(arm_sin_f32.o)
                              drivers/ui/ui_driver.o (arm_sin_f32)
libs/libarm_cortexM4lf_math.a(arm_cos_f32.o)
                              drivers/ui/ui_driver.o (arm_cos_f32)
libs/libarm_cortexM4lf_math.a(arm_sub_f32.o)
                              drivers/audio/audio_driver.o (arm_sub_f32)
libs/libarm_cortexM4lf_math.a(arm_scale_f32.o)
                              drivers/audio/audio_driver.o (arm_scale_f32)
libs/libarm_cortexM4lf_math.a(arm_offset_f32.o)
                              drivers/audio/audio_driver.o (arm_offset_f32)
libs/libarm_cortexM4lf_math.a(arm_negate_f32.o)
                              drivers/audio/audio_driver.o (arm_negate_f32)
libs/libarm_cortexM4lf_math.a(arm_mult_f32.o)
                              drivers/audio/audio_driver.o (arm_mult_f32)
libs/libarm_cortexM4lf_math.a(arm_add_f32.o)
                              drivers/audio/audio_driver.o (arm_add_f32)
libs/libarm_cortexM4lf_math.a(arm_common_tables.o)
                              libs/libarm_cortexM4lf_math.a(arm_cfft_radix4_init_f32.o) (armBitRevTable)
libs/libm.a(lib_a-s_cos.o)    drivers/ui/ui_driver.o (cos)
libs/libm.a(lib_a-s_pow10.o)  drivers/ui/ui_driver.o (pow10)
libs/libm.a(lib_a-s_sin.o)    drivers/ui/ui_driver.o (sin)
libs/libm.a(lib_a-sf_ceil.o)  drivers/ui/oscillator/ui_si570.o (ceilf)
libs/libm.a(lib_a-sf_floor.o)
                              drivers/ui/oscillator/ui_si570.o (floorf)
libs/libm.a(lib_a-sf_round.o)
                              drivers/ui/oscillator/ui_si570.o (roundf)
libs/libm.a(lib_a-sf_trunc.o)
                              drivers/ui/ui_driver.o (truncf)
libs/libm.a(lib_a-w_log10.o)  drivers/ui/ui_driver.o (log10)
libs/libm.a(lib_a-w_pow.o)    drivers/ui/ui_driver.o (pow)
libs/libm.a(lib_a-w_sqrt.o)   drivers/ui/ui_driver.o (sqrt)
libs/libm.a(lib_a-wf_log10.o)
                              drivers/audio/audio_driver.o (log10f)
libs/libm.a(lib_a-wf_pow.o)   drivers/audio/audio_driver.o (powf)
libs/libm.a(lib_a-wf_sincos.o)
                              drivers/audio/audio_driver.o (sincosf)
libs/libm.a(lib_a-wf_sqrt.o)  drivers/audio/audio_driver.o (sqrtf)
libs/libm.a(lib_a-e_log10.o)  libs/libm.a(lib_a-w_log10.o) (__ieee754_log10)
libs/libm.a(lib_a-e_pow.o)    libs/libm.a(lib_a-w_pow.o) (__ieee754_pow)
libs/libm.a(lib_a-e_rem_pio2.o)
                              libs/libm.a(lib_a-s_cos.o) (__ieee754_rem_pio2)
libs/libm.a(lib_a-e_sqrt.o)   libs/libm.a(lib_a-w_sqrt.o) (__ieee754_sqrt)
libs/libm.a(lib_a-ef_log10.o)
                              libs/libm.a(lib_a-wf_log10.o) (__ieee754_log10f)
libs/libm.a(lib_a-ef_pow.o)   libs/libm.a(lib_a-wf_pow.o) (__ieee754_powf)
libs/libm.a(lib_a-ef_sqrt.o)  libs/libm.a(lib_a-wf_sqrt.o) (__ieee754_sqrtf)
libs/libm.a(lib_a-k_cos.o)    libs/libm.a(lib_a-s_cos.o) (__kernel_cos)
libs/libm.a(lib_a-k_rem_pio2.o)
                              libs/libm.a(lib_a-e_rem_pio2.o) (__kernel_rem_pio2)
libs/libm.a(lib_a-k_sin.o)    libs/libm.a(lib_a-s_cos.o) (__kernel_sin)
libs/libm.a(lib_a-s_fabs.o)   libs/libm.a(lib_a-e_pow.o) (fabs)
libs/libm.a(lib_a-s_finite.o)
                              libs/libm.a(lib_a-w_pow.o) (finite)
libs/libm.a(lib_a-s_floor.o)  libs/libm.a(lib_a-k_rem_pio2.o) (floor)
libs/libm.a(lib_a-s_fpclassify.o)
                              libs/libm.a(lib_a-w_log10.o) (__fpclassifyd)
libs/libm.a(lib_a-s_lib_ver.o)
                              libs/libm.a(lib_a-w_log10.o) (__fdlib_version)
libs/libm.a(lib_a-s_matherr.o)
                              libs/libm.a(lib_a-w_log10.o) (matherr)
libs/libm.a(lib_a-s_nan.o)    libs/libm.a(lib_a-w_log10.o) (nan)
libs/libm.a(lib_a-s_rint.o)   libs/libm.a(lib_a-w_pow.o) (rint)
libs/libm.a(lib_a-s_scalbn.o)
                              libs/libm.a(lib_a-e_pow.o) (scalbn)
libs/libm.a(lib_a-sf_cos.o)   libs/libm.a(lib_a-wf_sincos.o) (cosf)
libs/libm.a(lib_a-sf_fabs.o)  libs/libm.a(lib_a-ef_pow.o) (fabsf)
libs/libm.a(lib_a-sf_finite.o)
                              libs/libm.a(lib_a-wf_pow.o) (finitef)
libs/libm.a(lib_a-sf_fpclassify.o)
                              libs/libm.a(lib_a-wf_log10.o) (__fpclassifyf)
libs/libm.a(lib_a-sf_nan.o)   libs/libm.a(lib_a-ef_pow.o) (nanf)
libs/libm.a(lib_a-sf_scalbn.o)
                              libs/libm.a(lib_a-ef_pow.o) (scalbnf)
libs/libm.a(lib_a-sf_sin.o)   libs/libm.a(lib_a-wf_sincos.o) (sinf)
libs/libm.a(lib_a-e_log.o)    libs/libm.a(lib_a-e_log10.o) (__ieee754_log)
libs/libm.a(lib_a-ef_log.o)   libs/libm.a(lib_a-ef_log10.o) (__ieee754_logf)
libs/libm.a(lib_a-ef_rem_pio2.o)
                              libs/libm.a(lib_a-sf_cos.o) (__ieee754_rem_pio2f)
libs/libm.a(lib_a-kf_cos.o)   libs/libm.a(lib_a-sf_cos.o) (__kernel_cosf)
libs/libm.a(lib_a-kf_rem_pio2.o)
                              libs/libm.a(lib_a-ef_rem_pio2.o) (__kernel_rem_pio2f)
libs/libm.a(lib_a-kf_sin.o)   libs/libm.a(lib_a-sf_cos.o) (__kernel_sinf)
libs/libm.a(lib_a-s_copysign.o)
                              libs/libm.a(lib_a-s_scalbn.o) (copysign)
libs/libm.a(lib_a-sf_copysign.o)
                              libs/libm.a(lib_a-sf_scalbn.o) (copysignf)
/usr/lib/gcc/arm-none-eabi/4.8/../../../arm-none-eabi/lib/armv7e-m/fpu/libg.a(lib_a-atexit.o)
                              /usr/lib/gcc/arm-none-eabi/4.8/../../../arm-none-eabi/lib/armv7e-m/fpu/crt0.o (atexit)
/usr/lib/gcc/arm-none-eabi/4.8/../../../arm-none-eabi/lib/armv7e-m/fpu/libg.a(lib_a-errno.o)
                              libs/libm.a(lib_a-w_log10.o) (__errno)
/usr/lib/gcc/arm-none-eabi/4.8/../../../arm-none-eabi/lib/armv7e-m/fpu/libg.a(lib_a-exit.o)
                              /usr/lib/gcc/arm-none-eabi/4.8/../../../arm-none-eabi/lib/armv7e-m/fpu/crt0.o (exit)
/usr/lib/gcc/arm-none-eabi/4.8/../../../arm-none-eabi/lib/armv7e-m/fpu/libg.a(lib_a-fini.o)
                              /usr/lib/gcc/arm-none-eabi/4.8/../../../arm-none-eabi/lib/armv7e-m/fpu/crt0.o (__libc_fini_array)
/usr/lib/gcc/arm-none-eabi/4.8/../../../arm-none-eabi/lib/armv7e-m/fpu/libg.a(lib_a-impure.o)
                              /usr/lib/gcc/arm-none-eabi/4.8/../../../arm-none-eabi/lib/armv7e-m/fpu/libg.a(lib_a-exit.o) (_global_impure_ptr)
/usr/lib/gcc/arm-none-eabi/4.8/../../../arm-none-eabi/lib/armv7e-m/fpu/libg.a(lib_a-init.o)
                              /usr/lib/gcc/arm-none-eabi/4.8/../../../arm-none-eabi/lib/armv7e-m/fpu/crt0.o (__libc_init_array)
/usr/lib/gcc/arm-none-eabi/4.8/../../../arm-none-eabi/lib/armv7e-m/fpu/libg.a(lib_a-memcmp.o)
                              drivers/ui/oscillator/ui_si570.o (memcmp)
/usr/lib/gcc/arm-none-eabi/4.8/../../../arm-none-eabi/lib/armv7e-m/fpu/libg.a(lib_a-memset.o)
                              /usr/lib/gcc/arm-none-eabi/4.8/../../../arm-none-eabi/lib/armv7e-m/fpu/crt0.o (memset)
/usr/lib/gcc/arm-none-eabi/4.8/../../../arm-none-eabi/lib/armv7e-m/fpu/libg.a(lib_a-strlen.o)
                              drivers/ui/ui_driver.o (strlen)
/usr/lib/gcc/arm-none-eabi/4.8/../../../arm-none-eabi/lib/armv7e-m/fpu/libg.a(lib_a-__atexit.o)
                              /usr/lib/gcc/arm-none-eabi/4.8/../../../arm-none-eabi/lib/armv7e-m/fpu/libg.a(lib_a-atexit.o) (__register_exitproc)
/usr/lib/gcc/arm-none-eabi/4.8/../../../arm-none-eabi/lib/armv7e-m/fpu/libg.a(lib_a-__call_atexit.o)
                              /usr/lib/gcc/arm-none-eabi/4.8/../../../arm-none-eabi/lib/armv7e-m/fpu/libg.a(lib_a-exit.o) (__call_exitprocs)
/usr/lib/gcc/arm-none-eabi/4.8/armv7e-m/fpu/libgcc.a(_arm_addsubdf3.o)
                              drivers/audio/audio_driver.o (__aeabi_dsub)
/usr/lib/gcc/arm-none-eabi/4.8/armv7e-m/fpu/libgcc.a(_arm_muldivdf3.o)
                              drivers/audio/audio_driver.o (__aeabi_dmul)
/usr/lib/gcc/arm-none-eabi/4.8/armv7e-m/fpu/libgcc.a(_arm_cmpdf2.o)
                              drivers/ui/oscillator/ui_si570.o (__aeabi_dcmpeq)
/usr/lib/gcc/arm-none-eabi/4.8/armv7e-m/fpu/libgcc.a(_arm_fixdfsi.o)
                              libs/libm.a(lib_a-e_rem_pio2.o) (__aeabi_d2iz)
/usr/lib/gcc/arm-none-eabi/4.8/armv7e-m/fpu/libgcc.a(_arm_truncdfsf2.o)
                              drivers/audio/audio_driver.o (__aeabi_d2f)

Allocating common symbols
Common symbol       size              file

band_decod_mode     0x28              drivers/ui/ui_driver.o
HID_MOUSE_Data      0x4               usb/usbh/class/HID/src/usbh_hid_mouse.o
ks                  0x24              drivers/ui/ui_menu.o
HID_Report          0x48              usb/usbh/class/HID/src/usbh_hid_core.o
HSEStartUpStatus    0x1               drivers/keyboard/usb/usbh_bsp.o
kd                  0x1               drivers/ui/ui_driver.o
AudioCtl            0x40              usb/usbd/class/audio/src/usbd_audio_core.o
SET_TEST_MODE       0x4               usb/usbd/core/src/usbd_core.o
pwmt                0x10              drivers/ui/ui_menu.o
ps                  0x18              drivers/audio/cw/cw_gen.o
ts                  0x1ec             main.o
lcd_cs_pio          0x4               drivers/ui/lcd/ui_lcd_hy28.o
band_filter_mode    0x28              drivers/ui/ui_driver.o
band_dial_value     0x28              drivers/ui/ui_driver.o
lms1StateF32        0x400             drivers/audio/audio_driver.o
lms2StateF32        0x400             drivers/audio/audio_driver.o
USBH_CfgDesc        0x200             usb/usbh/core/src/usbh_stdreq.o
USB_OTG_Core_dev    0xa94             drivers/keyboard/keyb_driver.o
es                  0x4               drivers/ui/ui_driver.o
lms1_instance       0x10              drivers/audio/audio_driver.o
band_decod_mode_a   0x28              drivers/ui/ui_driver.o
errsig2             0x128             drivers/audio/audio_driver.o
lms2_nr_delay       0x840             drivers/audio/audio_driver.o
rx_buffer           0x102             drivers/audio/audio_driver.o
os                  0x28              drivers/ui/oscillator/ui_si570.o
interpState         0xc4              drivers/audio/audio_driver.o
tx_buffer           0x102             drivers/audio/audio_driver.o
band_decod_mode_b   0x28              drivers/ui/ui_driver.o
errsig1             0x128             drivers/audio/audio_driver.o
FIR_Q               0xc               drivers/audio/audio_driver.o
usbd_cdc_OtherCfgDesc
                    0x43              usb/usbd/class/cdc/src/usbd_cdc_core.o
df                  0x38              drivers/ui/ui_menu.o
lcd_cs              0x2               drivers/ui/lcd/ui_lcd_hy28.o
HID_Machine         0x54              usb/usbh/class/HID/src/usbh_hid_core.o
lo                  0x10              drivers/ui/ui_menu.o
iir_tx_state        0xc4              drivers/audio/audio_driver.o
lms1NormCoeff_f32   0x400             drivers/audio/audio_driver.o
ets                 0xc               drivers/ui/ui_menu.o
band_dial_value_b   0x28              drivers/ui/ui_driver.o
lms2NormCoeff_f32   0x400             drivers/audio/audio_driver.o
USB_Rx_Buffer       0x40              usb/usbd/class/cdc/src/usbd_cdc_core.o
kbs                 0x36              drivers/keyboard/usb/usbh_usr.o
band_filter_mode_a  0x28              drivers/ui/ui_driver.o
swrm                0x34              drivers/ui/ui_menu.o
FIR_Q_TX            0xc               drivers/audio/audio_driver.o
fc                  0x820             hardware/mchf_board.o
USART_InitStructure
                    0x10              drivers/cat/usb/usbd_cdc_vcp.o
CmdBuff             0x8               usb/usbd/class/cdc/src/usbd_cdc_core.o
sd                  0xecf0            drivers/audio/audio_driver.o
result              0x128             drivers/audio/audio_driver.o
lms1Norm_instance   0x18              drivers/audio/audio_driver.o
band_dial_value_a   0x28              drivers/ui/ui_driver.o
FIR_I_TX            0xc               drivers/audio/audio_driver.o
HID_Desc            0xa               usb/usbh/class/HID/src/usbh_hid_core.o
USB_OTG_dev         0xa94             drivers/cat/cat_driver.o
step                0x4               drivers/audio/softdds/softdds.o
FIR_I               0xc               drivers/audio/audio_driver.o
ews                 0xc               drivers/ui/ui_menu.o
decimState          0xc4              drivers/audio/audio_driver.o
sm                  0x14              drivers/audio/audio_driver.o
APP_Rx_Buffer       0x800             usb/usbd/class/cdc/src/usbd_cdc_core.o
eos                 0xc               drivers/ui/ui_menu.o
IIR_TXFilter        0x10              drivers/audio/audio_driver.o
lms1_nr_delay       0x840             drivers/audio/audio_driver.o
USB_Host            0x84              drivers/keyboard/keyb_driver.o
lms2Norm_instance   0x18              drivers/audio/audio_driver.o
USBD_StrDesc        0xff              usb/usbd/core/src/usbd_req.o
band_filter_mode_b  0x28              drivers/ui/ui_driver.o
ads                 0x133c            drivers/audio/audio_driver.o
HID_Setup           0x8               usb/usbh/class/HID/src/usbh_hid_core.o
lms2_instance       0x10              drivers/audio/audio_driver.o

Discarded input sections

 .text          0x00000000        0x0 /usr/lib/gcc/arm-none-eabi/4.8/armv7e-m/fpu/crti.o
 .data          0x00000000        0x0 /usr/lib/gcc/arm-none-eabi/4.8/armv7e-m/fpu/crti.o
 .bss           0x00000000        0x0 /usr/lib/gcc/arm-none-eabi/4.8/armv7e-m/fpu/crti.o
 .data          0x00000000        0x4 /usr/lib/gcc/arm-none-eabi/4.8/armv7e-m/fpu/crtbegin.o
 .text          0x00000000       0x68 /usr/lib/gcc/arm-none-eabi/4.8/../../../arm-none-eabi/lib/armv7e-m/fpu/crt0.o
 .data          0x00000000        0x0 /usr/lib/gcc/arm-none-eabi/4.8/../../../arm-none-eabi/lib/armv7e-m/fpu/crt0.o
 .bss           0x00000000        0x0 /usr/lib/gcc/arm-none-eabi/4.8/../../../arm-none-eabi/lib/armv7e-m/fpu/crt0.o
 .ARM.extab     0x00000000        0x0 /usr/lib/gcc/arm-none-eabi/4.8/../../../arm-none-eabi/lib/armv7e-m/fpu/crt0.o
 .ARM.exidx     0x00000000        0x8 /usr/lib/gcc/arm-none-eabi/4.8/../../../arm-none-eabi/lib/armv7e-m/fpu/crt0.o
 .ARM.attributes
                0x00000000       0x20 /usr/lib/gcc/arm-none-eabi/4.8/../../../arm-none-eabi/lib/armv7e-m/fpu/crt0.o
 .debug_line    0x00000000       0x7e /usr/lib/gcc/arm-none-eabi/4.8/../../../arm-none-eabi/lib/armv7e-m/fpu/crt0.o
 .debug_info    0x00000000       0xb9 /usr/lib/gcc/arm-none-eabi/4.8/../../../arm-none-eabi/lib/armv7e-m/fpu/crt0.o
 .debug_abbrev  0x00000000       0x14 /usr/lib/gcc/arm-none-eabi/4.8/../../../arm-none-eabi/lib/armv7e-m/fpu/crt0.o
 .debug_aranges
                0x00000000       0x20 /usr/lib/gcc/arm-none-eabi/4.8/../../../arm-none-eabi/lib/armv7e-m/fpu/crt0.o
 .text          0x00000000        0x0 main.o
 .data          0x00000000        0x0 main.o
 .bss           0x00000000        0x8 main.o
 .text.wd_reset
                0x00000000       0x40 main.o
 .text          0x00000000        0x0 usb/usbh/core/src/usbh_hcs.o
 .data          0x00000000        0x0 usb/usbh/core/src/usbh_hcs.o
 .bss           0x00000000        0x0 usb/usbh/core/src/usbh_hcs.o
 .text.USBH_Open_Channel
                0x00000000       0xe4 usb/usbh/core/src/usbh_hcs.o
 .text.USBH_Modify_Channel
                0x00000000       0x8c usb/usbh/core/src/usbh_hcs.o
 .text.USBH_Alloc_Channel
                0x00000000       0x48 usb/usbh/core/src/usbh_hcs.o
 .text.USBH_Free_Channel
                0x00000000       0x44 usb/usbh/core/src/usbh_hcs.o
 .text.USBH_DeAllocate_AllChannel
                0x00000000       0x38 usb/usbh/core/src/usbh_hcs.o
 .text.USBH_GetFreeChannel
                0x00000000       0x4c usb/usbh/core/src/usbh_hcs.o
 .comment       0x00000000       0x2e usb/usbh/core/src/usbh_hcs.o
 .ARM.attributes
                0x00000000       0x39 usb/usbh/core/src/usbh_hcs.o
 .text          0x00000000        0x0 usb/usbh/core/src/usbh_core.o
 .data          0x00000000       0x10 usb/usbh/core/src/usbh_core.o
 .bss           0x00000000        0x2 usb/usbh/core/src/usbh_core.o
 .text.USBH_Connected
                0x00000000       0x20 usb/usbh/core/src/usbh_core.o
 .text.USBH_Disconnected
                0x00000000       0x20 usb/usbh/core/src/usbh_core.o
 .text.USBH_SOF
                0x00000000       0x18 usb/usbh/core/src/usbh_core.o
 .text.USBH_Init
                0x00000000       0x54 usb/usbh/core/src/usbh_core.o
 .text.USBH_DeInit
                0x00000000       0x60 usb/usbh/core/src/usbh_core.o
 .text.USBH_Process
                0x00000000      0x240 usb/usbh/core/src/usbh_core.o
 .text.USBH_ErrorHandle
                0x00000000       0x48 usb/usbh/core/src/usbh_core.o
 .rodata        0x00000000        0x4 usb/usbh/core/src/usbh_core.o
 .text.USBH_HandleEnum
                0x00000000      0x2c8 usb/usbh/core/src/usbh_core.o
 .text.USBH_HandleControl
                0x00000000      0x32c usb/usbh/core/src/usbh_core.o
 .comment       0x00000000       0x2e usb/usbh/core/src/usbh_core.o
 .ARM.attributes
                0x00000000       0x39 usb/usbh/core/src/usbh_core.o
 .text          0x00000000        0x0 usb/usbh/core/src/usbh_ioreq.o
 .data          0x00000000        0x0 usb/usbh/core/src/usbh_ioreq.o
 .bss           0x00000000        0x0 usb/usbh/core/src/usbh_ioreq.o
 .text.USBH_CtlReq
                0x00000000       0x88 usb/usbh/core/src/usbh_ioreq.o
 .text.USBH_CtlSendSetup
                0x00000000       0x68 usb/usbh/core/src/usbh_ioreq.o
 .text.USBH_CtlSendData
                0x00000000       0xa0 usb/usbh/core/src/usbh_ioreq.o
 .text.USBH_CtlReceiveData
                0x00000000       0x68 usb/usbh/core/src/usbh_ioreq.o
 .text.USBH_BulkSendData
                0x00000000       0x8c usb/usbh/core/src/usbh_ioreq.o
 .text.USBH_BulkReceiveData
                0x00000000       0x8c usb/usbh/core/src/usbh_ioreq.o
 .text.USBH_InterruptReceiveData
                0x00000000       0xa8 usb/usbh/core/src/usbh_ioreq.o
 .text.USBH_InterruptSendData
                0x00000000       0xa8 usb/usbh/core/src/usbh_ioreq.o
 .text.USBH_SubmitSetupRequest
                0x00000000       0x3c usb/usbh/core/src/usbh_ioreq.o
 .text.USBH_IsocReceiveData
                0x00000000       0x68 usb/usbh/core/src/usbh_ioreq.o
 .text.USBH_IsocSendData
                0x00000000       0x68 usb/usbh/core/src/usbh_ioreq.o
 .comment       0x00000000       0x2e usb/usbh/core/src/usbh_ioreq.o
 .ARM.attributes
                0x00000000       0x39 usb/usbh/core/src/usbh_ioreq.o
 .text          0x00000000        0x0 usb/usbh/core/src/usbh_stdreq.o
 .data          0x00000000        0x0 usb/usbh/core/src/usbh_stdreq.o
 .bss           0x00000000        0x4 usb/usbh/core/src/usbh_stdreq.o
 .text.USBH_Get_DevDesc
                0x00000000       0x58 usb/usbh/core/src/usbh_stdreq.o
 .text.USBH_Get_CfgDesc
                0x00000000       0x84 usb/usbh/core/src/usbh_stdreq.o
 .text.USBH_Get_StringDesc
                0x00000000       0x58 usb/usbh/core/src/usbh_stdreq.o
 .text.USBH_GetDescriptor
                0x00000000       0x60 usb/usbh/core/src/usbh_stdreq.o
 .text.USBH_SetAddress
                0x00000000       0x44 usb/usbh/core/src/usbh_stdreq.o
 .text.USBH_SetCfg
                0x00000000       0x44 usb/usbh/core/src/usbh_stdreq.o
 .text.USBH_SetInterface
                0x00000000       0x48 usb/usbh/core/src/usbh_stdreq.o
 .text.USBH_ClrFeature
                0x00000000       0x6c usb/usbh/core/src/usbh_stdreq.o
 .text.USBH_ParseDevDesc
                0x00000000       0xd8 usb/usbh/core/src/usbh_stdreq.o
 .text.USBH_ParseCfgDesc
                0x00000000      0x1b8 usb/usbh/core/src/usbh_stdreq.o
 .text.USBH_ParseInterfaceDesc
                0x00000000       0x5c usb/usbh/core/src/usbh_stdreq.o
 .text.USBH_ParseEPDesc
                0x00000000       0x58 usb/usbh/core/src/usbh_stdreq.o
 .text.USBH_ParseStringDesc
                0x00000000       0x64 usb/usbh/core/src/usbh_stdreq.o
 .text.USBH_GetNextDesc
                0x00000000       0x34 usb/usbh/core/src/usbh_stdreq.o
 .comment       0x00000000       0x2e usb/usbh/core/src/usbh_stdreq.o
 .ARM.attributes
                0x00000000       0x39 usb/usbh/core/src/usbh_stdreq.o
 COMMON         0x00000000      0x200 usb/usbh/core/src/usbh_stdreq.o
 .text          0x00000000        0x0 usb/usbh/class/HID/src/usbh_hid_keybd.o
 .data          0x00000000        0x8 usb/usbh/class/HID/src/usbh_hid_keybd.o
 .bss           0x00000000       0x20 usb/usbh/class/HID/src/usbh_hid_keybd.o
 .rodata        0x00000000      0x1f0 usb/usbh/class/HID/src/usbh_hid_keybd.o
 .text.KEYBRD_Init
                0x00000000        0xc usb/usbh/class/HID/src/usbh_hid_keybd.o
 .text.KEYBRD_Decode
                0x00000000      0x1b8 usb/usbh/class/HID/src/usbh_hid_keybd.o
 .comment       0x00000000       0x2e usb/usbh/class/HID/src/usbh_hid_keybd.o
 .ARM.attributes
                0x00000000       0x39 usb/usbh/class/HID/src/usbh_hid_keybd.o
 .text          0x00000000        0x0 usb/usbh/class/HID/src/usbh_hid_core.o
 .data          0x00000000       0x10 usb/usbh/class/HID/src/usbh_hid_core.o
 .bss           0x00000000        0x1 usb/usbh/class/HID/src/usbh_hid_core.o
 .text.USBH_HID_InterfaceInit
                0x00000000      0x1a4 usb/usbh/class/HID/src/usbh_hid_core.o
 .text.USBH_HID_InterfaceDeInit
                0x00000000       0x7c usb/usbh/class/HID/src/usbh_hid_core.o
 .text.USBH_HID_ClassRequest
                0x00000000       0xec usb/usbh/class/HID/src/usbh_hid_core.o
 .text.USBH_HID_Handle
                0x00000000      0x140 usb/usbh/class/HID/src/usbh_hid_core.o
 .text.USBH_Get_HID_ReportDescriptor
                0x00000000       0x38 usb/usbh/class/HID/src/usbh_hid_core.o
 .text.USBH_Get_HID_Descriptor
                0x00000000       0x38 usb/usbh/class/HID/src/usbh_hid_core.o
 .text.USBH_Set_Idle
                0x00000000       0x50 usb/usbh/class/HID/src/usbh_hid_core.o
 .text.USBH_Set_Report
                0x00000000       0x54 usb/usbh/class/HID/src/usbh_hid_core.o
 .text.USBH_Set_Protocol
                0x00000000       0x50 usb/usbh/class/HID/src/usbh_hid_core.o
 .text.USBH_ParseHIDDesc
                0x00000000       0x70 usb/usbh/class/HID/src/usbh_hid_core.o
 .comment       0x00000000       0x2e usb/usbh/class/HID/src/usbh_hid_core.o
 .ARM.attributes
                0x00000000       0x39 usb/usbh/class/HID/src/usbh_hid_core.o
 COMMON         0x00000000       0xb0 usb/usbh/class/HID/src/usbh_hid_core.o
 .text          0x00000000        0x0 usb/usbh/class/HID/src/usbh_hid_mouse.o
 .data          0x00000000        0x8 usb/usbh/class/HID/src/usbh_hid_mouse.o
 .bss           0x00000000        0x0 usb/usbh/class/HID/src/usbh_hid_mouse.o
 .text.MOUSE_Init
                0x00000000        0xc usb/usbh/class/HID/src/usbh_hid_mouse.o
 .text.MOUSE_Decode
                0x00000000       0x30 usb/usbh/class/HID/src/usbh_hid_mouse.o
 .comment       0x00000000       0x2e usb/usbh/class/HID/src/usbh_hid_mouse.o
 .ARM.attributes
                0x00000000       0x39 usb/usbh/class/HID/src/usbh_hid_mouse.o
 COMMON         0x00000000        0x4 usb/usbh/class/HID/src/usbh_hid_mouse.o
 .text          0x00000000        0x0 usb/otg/src/usb_core.o
 .data          0x00000000        0x0 usb/otg/src/usb_core.o
 .bss           0x00000000        0x0 usb/otg/src/usb_core.o
 .text.USB_OTG_IsHostMode
                0x00000000       0x24 usb/otg/src/usb_core.o
 .text.USB_OTG_ReadOtgItr
                0x00000000       0x1c usb/otg/src/usb_core.o
 .text.USB_OTG_CoreInitHost
                0x00000000       0xc4 usb/otg/src/usb_core.o
 .text.USB_OTG_IsEvenFrame
                0x00000000       0x28 usb/otg/src/usb_core.o
 .text.USB_OTG_DriveVbus
                0x00000000       0x78 usb/otg/src/usb_core.o
 .text.USB_OTG_EnableHostInt
                0x00000000       0x80 usb/otg/src/usb_core.o
 .text.USB_OTG_InitFSLSPClkSel
                0x00000000       0x38 usb/otg/src/usb_core.o
 .text.USB_OTG_ReadHPRT0
                0x00000000       0x40 usb/otg/src/usb_core.o
 .text.USB_OTG_ReadHostAllChannels_intr
                0x00000000       0x1c usb/otg/src/usb_core.o
 .text.USB_OTG_ResetPort
                0x00000000       0x4c usb/otg/src/usb_core.o
 .text.USB_OTG_HC_Init
                0x00000000      0x294 usb/otg/src/usb_core.o
 .text.USB_OTG_HC_StartXfer
                0x00000000      0x2b8 usb/otg/src/usb_core.o
 .text.USB_OTG_HC_Halt
                0x00000000       0xa4 usb/otg/src/usb_core.o
 .text.USB_OTG_HC_DoPing
                0x00000000       0x74 usb/otg/src/usb_core.o
 .text.USB_OTG_StopHost
                0x00000000       0x80 usb/otg/src/usb_core.o
 .text.USB_OTG_InitDevSpeed
                0x00000000       0x38 usb/otg/src/usb_core.o
 .text.USB_OTG_ActiveRemoteWakeup
                0x00000000       0x8c usb/otg/src/usb_core.o
 .text.USB_OTG_UngateClock
                0x00000000       0x54 usb/otg/src/usb_core.o
 .text.USB_OTG_StopDevice
                0x00000000       0x80 usb/otg/src/usb_core.o
 .text.USB_OTG_GetEPStatus
                0x00000000       0xac usb/otg/src/usb_core.o
 .text.USB_OTG_SetEPStatus
                0x00000000      0x12c usb/otg/src/usb_core.o
 .text          0x00000000        0x0 usb/otg/src/usb_hcd_int.o
 .data          0x00000000        0x0 usb/otg/src/usb_hcd_int.o
 .bss           0x00000000        0x0 usb/otg/src/usb_hcd_int.o
 .text.USBH_OTG_ISR_Handler
                0x00000000      0x10c usb/otg/src/usb_hcd_int.o
 .text.USB_OTG_USBH_handle_hc_ISR
                0x00000000       0x8c usb/otg/src/usb_hcd_int.o
 .text.USB_OTG_USBH_handle_sof_ISR
                0x00000000       0x34 usb/otg/src/usb_hcd_int.o
 .text.USB_OTG_USBH_handle_Disconnect_ISR
                0x00000000       0x34 usb/otg/src/usb_hcd_int.o
 .text.USB_OTG_USBH_handle_nptxfempty_ISR
                0x00000000      0x180 usb/otg/src/usb_hcd_int.o
 .text.USB_OTG_USBH_handle_ptxfempty_ISR
                0x00000000      0x180 usb/otg/src/usb_hcd_int.o
 .text.USB_OTG_USBH_handle_port_ISR
                0x00000000      0x164 usb/otg/src/usb_hcd_int.o
 .text.USB_OTG_USBH_handle_hc_n_Out_ISR
                0x00000000      0x558 usb/otg/src/usb_hcd_int.o
 .text.USB_OTG_USBH_handle_hc_n_In_ISR
                0x00000000      0x5b0 usb/otg/src/usb_hcd_int.o
 .text.USB_OTG_USBH_handle_rx_qlvl_ISR
                0x00000000      0x198 usb/otg/src/usb_hcd_int.o
 .text.USB_OTG_USBH_handle_IncompletePeriodicXfer_ISR
                0x00000000       0x50 usb/otg/src/usb_hcd_int.o
 .comment       0x00000000       0x2e usb/otg/src/usb_hcd_int.o
 .ARM.attributes
                0x00000000       0x39 usb/otg/src/usb_hcd_int.o
 .text          0x00000000        0x0 usb/otg/src/usb_dcd.o
 .data          0x00000000        0x0 usb/otg/src/usb_dcd.o
 .bss           0x00000000        0x0 usb/otg/src/usb_dcd.o
 .text.DCD_EP_Flush
                0x00000000       0x34 usb/otg/src/usb_dcd.o
 .text.DCD_DevConnect
                0x00000000       0x2c usb/otg/src/usb_dcd.o
 .text.DCD_DevDisconnect
                0x00000000       0x2c usb/otg/src/usb_dcd.o
 .text.DCD_GetEPStatus
                0x00000000       0x60 usb/otg/src/usb_dcd.o
 .text.DCD_SetEPStatus
                0x00000000       0x58 usb/otg/src/usb_dcd.o
 .text          0x00000000        0x0 usb/otg/src/usb_dcd_int.o
 .data          0x00000000        0x0 usb/otg/src/usb_dcd_int.o
 .bss           0x00000000        0x0 usb/otg/src/usb_dcd_int.o
 .text          0x00000000        0x0 usb/otg/src/usb_otg.o
 .data          0x00000000        0x0 usb/otg/src/usb_otg.o
 .bss           0x00000000        0x0 usb/otg/src/usb_otg.o
 .text.STM32_USBO_OTG_ISR_Handler
                0x00000000       0x7c usb/otg/src/usb_otg.o
 .text.USB_OTG_Read_itr
                0x00000000       0x54 usb/otg/src/usb_otg.o
 .text.USB_OTG_HandleOTG_ISR
                0x00000000       0xfc usb/otg/src/usb_otg.o
 .text.USB_OTG_HandleConnectorIDStatusChange_ISR
                0x00000000       0x94 usb/otg/src/usb_otg.o
 .text.USB_OTG_HandleSessionRequest_ISR
                0x00000000       0x54 usb/otg/src/usb_otg.o
 .text.USB_OTG_GetCurrentState
                0x00000000       0x1c usb/otg/src/usb_otg.o
 .comment       0x00000000       0x2e usb/otg/src/usb_otg.o
 .ARM.attributes
                0x00000000       0x39 usb/otg/src/usb_otg.o
 .text          0x00000000        0x0 usb/otg/src/usb_hcd.o
 .data          0x00000000        0x0 usb/otg/src/usb_hcd.o
 .bss           0x00000000        0x0 usb/otg/src/usb_hcd.o
 .text.HCD_Init
                0x00000000       0x94 usb/otg/src/usb_hcd.o
 .text.HCD_GetCurrentSpeed
                0x00000000       0x28 usb/otg/src/usb_hcd.o
 .text.HCD_ResetPort
                0x00000000       0x18 usb/otg/src/usb_hcd.o
 .text.HCD_IsDeviceConnected
                0x00000000       0x1c usb/otg/src/usb_hcd.o
 .text.HCD_GetCurrentFrame
                0x00000000       0x1c usb/otg/src/usb_hcd.o
 .text.HCD_GetURB_State
                0x00000000       0x24 usb/otg/src/usb_hcd.o
 .text.HCD_GetXferCnt
                0x00000000       0x28 usb/otg/src/usb_hcd.o
 .text.HCD_GetHCState
                0x00000000       0x24 usb/otg/src/usb_hcd.o
 .text.HCD_HC_Init
                0x00000000       0x20 usb/otg/src/usb_hcd.o
 .text.HCD_SubmitRequest
                0x00000000       0x3c usb/otg/src/usb_hcd.o
 .comment       0x00000000       0x2e usb/otg/src/usb_hcd.o
 .ARM.attributes
                0x00000000       0x39 usb/otg/src/usb_hcd.o
 .text          0x00000000        0x0 usb/usbd/core/src/usbd_core.o
 .bss           0x00000000        0x0 usb/usbd/core/src/usbd_core.o
 .text          0x00000000        0x0 usb/usbd/core/src/usbd_ioreq.o
 .data          0x00000000        0x0 usb/usbd/core/src/usbd_ioreq.o
 .bss           0x00000000        0x0 usb/usbd/core/src/usbd_ioreq.o
 .text.USBD_GetRxCount
                0x00000000       0x30 usb/usbd/core/src/usbd_ioreq.o
 .text          0x00000000        0x0 usb/usbd/core/src/usbd_req.o
 .data          0x00000000        0x0 usb/usbd/core/src/usbd_req.o
 .text          0x00000000        0x0 usb/usbd/class/audio/src/usbd_audio_core.o
 .data          0x00000000       0x9c usb/usbd/class/audio/src/usbd_audio_core.o
 .bss           0x00000000       0x14 usb/usbd/class/audio/src/usbd_audio_core.o
 .text.usbd_audio_Init
                0x00000000       0x1c usb/usbd/class/audio/src/usbd_audio_core.o
 .text.usbd_audio_DeInit
                0x00000000       0x2c usb/usbd/class/audio/src/usbd_audio_core.o
 .text.usbd_audio_Setup
                0x00000000       0xac usb/usbd/class/audio/src/usbd_audio_core.o
 .text.usbd_audio_EP0_RxReady
                0x00000000       0x50 usb/usbd/class/audio/src/usbd_audio_core.o
 .text.usbd_audio_DataIn
                0x00000000       0x1c usb/usbd/class/audio/src/usbd_audio_core.o
 .text.usbd_audio_DataOut
                0x00000000       0x5c usb/usbd/class/audio/src/usbd_audio_core.o
 .text.usbd_audio_SOF
                0x00000000       0x28 usb/usbd/class/audio/src/usbd_audio_core.o
 .text.usbd_audio_OUT_Incplt
                0x00000000       0x18 usb/usbd/class/audio/src/usbd_audio_core.o
 .text.AUDIO_Req_GetCurrent
                0x00000000       0x24 usb/usbd/class/audio/src/usbd_audio_core.o
 .text.AUDIO_Req_SetCurrent
                0x00000000       0x54 usb/usbd/class/audio/src/usbd_audio_core.o
 .text.USBD_audio_GetCfgDesc
                0x00000000       0x24 usb/usbd/class/audio/src/usbd_audio_core.o
 .comment       0x00000000       0x2e usb/usbd/class/audio/src/usbd_audio_core.o
 .ARM.attributes
                0x00000000       0x39 usb/usbd/class/audio/src/usbd_audio_core.o
 COMMON         0x00000000       0x40 usb/usbd/class/audio/src/usbd_audio_core.o
 .text          0x00000000        0x0 usb/usbd/class/audio/src/usbd_audio_out_if.o
 .data          0x00000000       0x1c usb/usbd/class/audio/src/usbd_audio_out_if.o
 .bss           0x00000000        0x8 usb/usbd/class/audio/src/usbd_audio_out_if.o
 .text.Init     0x00000000       0x38 usb/usbd/class/audio/src/usbd_audio_out_if.o
 .text.DeInit   0x00000000       0x20 usb/usbd/class/audio/src/usbd_audio_out_if.o
 .text.AudioCmd
                0x00000000       0xa8 usb/usbd/class/audio/src/usbd_audio_out_if.o
 .text.VolumeCtl
                0x00000000       0x24 usb/usbd/class/audio/src/usbd_audio_out_if.o
 .text.MuteCtl  0x00000000       0x18 usb/usbd/class/audio/src/usbd_audio_out_if.o
 .text.PeriodicTC
                0x00000000       0x18 usb/usbd/class/audio/src/usbd_audio_out_if.o
 .text.GetState
                0x00000000       0x18 usb/usbd/class/audio/src/usbd_audio_out_if.o
 .comment       0x00000000       0x2e usb/usbd/class/audio/src/usbd_audio_out_if.o
 .ARM.attributes
                0x00000000       0x39 usb/usbd/class/audio/src/usbd_audio_out_if.o
 .text          0x00000000        0x0 usb/usbd/class/cdc/src/usbd_cdc_core.o
 .text          0x00000000        0x0 cmsis_lib/source/stm32f4xx_usart.o
 .data          0x00000000        0x0 cmsis_lib/source/stm32f4xx_usart.o
 .bss           0x00000000        0x0 cmsis_lib/source/stm32f4xx_usart.o
 .text.USART_DeInit
                0x00000000       0xd0 cmsis_lib/source/stm32f4xx_usart.o
 .text.USART_Init
                0x00000000      0x174 cmsis_lib/source/stm32f4xx_usart.o
 .text.USART_StructInit
                0x00000000       0x38 cmsis_lib/source/stm32f4xx_usart.o
 .text.USART_ClockInit
                0x00000000       0x54 cmsis_lib/source/stm32f4xx_usart.o
 .text.USART_ClockStructInit
                0x00000000       0x2c cmsis_lib/source/stm32f4xx_usart.o
 .text.USART_Cmd
                0x00000000       0x40 cmsis_lib/source/stm32f4xx_usart.o
 .text.USART_SetPrescaler
                0x00000000       0x38 cmsis_lib/source/stm32f4xx_usart.o
 .text.USART_OverSampling8Cmd
                0x00000000       0x44 cmsis_lib/source/stm32f4xx_usart.o
 .text.USART_OneBitMethodCmd
                0x00000000       0x40 cmsis_lib/source/stm32f4xx_usart.o
 .text.USART_SendData
                0x00000000       0x24 cmsis_lib/source/stm32f4xx_usart.o
 .text.USART_ReceiveData
                0x00000000       0x20 cmsis_lib/source/stm32f4xx_usart.o
 .text.USART_SetAddress
                0x00000000       0x38 cmsis_lib/source/stm32f4xx_usart.o
 .text.USART_ReceiverWakeUpCmd
                0x00000000       0x40 cmsis_lib/source/stm32f4xx_usart.o
 .text.USART_WakeUpConfig
                0x00000000       0x38 cmsis_lib/source/stm32f4xx_usart.o
 .text.USART_LINBreakDetectLengthConfig
                0x00000000       0x38 cmsis_lib/source/stm32f4xx_usart.o
 .text.USART_LINCmd
                0x00000000       0x40 cmsis_lib/source/stm32f4xx_usart.o
 .text.USART_SendBreak
                0x00000000       0x24 cmsis_lib/source/stm32f4xx_usart.o
 .text.USART_HalfDuplexCmd
                0x00000000       0x40 cmsis_lib/source/stm32f4xx_usart.o
 .text.USART_SetGuardTime
                0x00000000       0x3c cmsis_lib/source/stm32f4xx_usart.o
 .text.USART_SmartCardCmd
                0x00000000       0x40 cmsis_lib/source/stm32f4xx_usart.o
 .text.USART_SmartCardNACKCmd
                0x00000000       0x40 cmsis_lib/source/stm32f4xx_usart.o
 .text.USART_IrDAConfig
                0x00000000       0x38 cmsis_lib/source/stm32f4xx_usart.o
 .text.USART_IrDACmd
                0x00000000       0x40 cmsis_lib/source/stm32f4xx_usart.o
 .text.USART_DMACmd
                0x00000000       0x48 cmsis_lib/source/stm32f4xx_usart.o
 .text.USART_ITConfig
                0x00000000       0x90 cmsis_lib/source/stm32f4xx_usart.o
 .text.USART_GetFlagStatus
                0x00000000       0x38 cmsis_lib/source/stm32f4xx_usart.o
 .text.USART_ClearFlag
                0x00000000       0x20 cmsis_lib/source/stm32f4xx_usart.o
 .text.USART_GetITStatus
                0x00000000       0xb0 cmsis_lib/source/stm32f4xx_usart.o
 .text.USART_ClearITPendingBit
                0x00000000       0x38 cmsis_lib/source/stm32f4xx_usart.o
 .comment       0x00000000       0x2e cmsis_lib/source/stm32f4xx_usart.o
 .ARM.attributes
                0x00000000       0x39 cmsis_lib/source/stm32f4xx_usart.o
 .text          0x00000000        0x0 cmsis_lib/source/misc.o
 .data          0x00000000        0x0 cmsis_lib/source/misc.o
 .bss           0x00000000        0x0 cmsis_lib/source/misc.o
 .text.NVIC_SetVectorTable
                0x00000000       0x2c cmsis_lib/source/misc.o
 .text.NVIC_SystemLPConfig
                0x00000000       0x40 cmsis_lib/source/misc.o
 .text          0x00000000        0x0 cmsis_lib/source/stm32f4xx_pwr.o
 .data          0x00000000        0x0 cmsis_lib/source/stm32f4xx_pwr.o
 .bss           0x00000000        0x0 cmsis_lib/source/stm32f4xx_pwr.o
 .text.PWR_DeInit
                0x00000000       0x1c cmsis_lib/source/stm32f4xx_pwr.o
 .text.PWR_BackupAccessCmd
                0x00000000       0x20 cmsis_lib/source/stm32f4xx_pwr.o
 .text.PWR_PVDLevelConfig
                0x00000000       0x38 cmsis_lib/source/stm32f4xx_pwr.o
 .text.PWR_PVDCmd
                0x00000000       0x20 cmsis_lib/source/stm32f4xx_pwr.o
 .text.PWR_WakeUpPinCmd
                0x00000000       0x20 cmsis_lib/source/stm32f4xx_pwr.o
 .text.PWR_BackupRegulatorCmd
                0x00000000       0x20 cmsis_lib/source/stm32f4xx_pwr.o
 .text.PWR_MainRegulatorModeConfig
                0x00000000       0x38 cmsis_lib/source/stm32f4xx_pwr.o
 .text.PWR_FlashPowerDownCmd
                0x00000000       0x20 cmsis_lib/source/stm32f4xx_pwr.o
 .text.PWR_EnterSTOPMode
                0x00000000       0x64 cmsis_lib/source/stm32f4xx_pwr.o
 .text.PWR_EnterSTANDBYMode
                0x00000000       0x3c cmsis_lib/source/stm32f4xx_pwr.o
 .text.PWR_GetFlagStatus
                0x00000000       0x34 cmsis_lib/source/stm32f4xx_pwr.o
 .text.PWR_ClearFlag
                0x00000000       0x24 cmsis_lib/source/stm32f4xx_pwr.o
 .comment       0x00000000       0x2e cmsis_lib/source/stm32f4xx_pwr.o
 .ARM.attributes
                0x00000000       0x39 cmsis_lib/source/stm32f4xx_pwr.o
 .text          0x00000000        0x0 cmsis_lib/source/stm32f4xx_syscfg.o
 .data          0x00000000        0x0 cmsis_lib/source/stm32f4xx_syscfg.o
 .bss           0x00000000        0x0 cmsis_lib/source/stm32f4xx_syscfg.o
 .text.SYSCFG_DeInit
                0x00000000       0x1c cmsis_lib/source/stm32f4xx_syscfg.o
 .text.SYSCFG_MemoryRemapConfig
                0x00000000       0x20 cmsis_lib/source/stm32f4xx_syscfg.o
 .text.SYSCFG_ETH_MediaInterfaceConfig
                0x00000000       0x1c cmsis_lib/source/stm32f4xx_syscfg.o
 .text.SYSCFG_CompensationCellCmd
                0x00000000       0x20 cmsis_lib/source/stm32f4xx_syscfg.o
 .text.SYSCFG_GetCompensationCellStatus
                0x00000000       0x34 cmsis_lib/source/stm32f4xx_syscfg.o
 .text          0x00000000        0x0 cmsis_lib/source/stm32f4xx_gpio.o
 .data          0x00000000        0x0 cmsis_lib/source/stm32f4xx_gpio.o
 .bss           0x00000000        0x0 cmsis_lib/source/stm32f4xx_gpio.o
 .text.GPIO_DeInit
                0x00000000      0x120 cmsis_lib/source/stm32f4xx_gpio.o
 .text.GPIO_StructInit
                0x00000000       0x34 cmsis_lib/source/stm32f4xx_gpio.o
 .text.GPIO_PinLockConfig
                0x00000000       0x44 cmsis_lib/source/stm32f4xx_gpio.o
 .text.GPIO_ReadInputData
                0x00000000       0x1c cmsis_lib/source/stm32f4xx_gpio.o
 .text.GPIO_ReadOutputDataBit
                0x00000000       0x34 cmsis_lib/source/stm32f4xx_gpio.o
 .text.GPIO_ReadOutputData
                0x00000000       0x1c cmsis_lib/source/stm32f4xx_gpio.o
 .text.GPIO_WriteBit
                0x00000000       0x30 cmsis_lib/source/stm32f4xx_gpio.o
 .text.GPIO_Write
                0x00000000       0x1c cmsis_lib/source/stm32f4xx_gpio.o
 .text.GPIO_ToggleBits
                0x00000000       0x24 cmsis_lib/source/stm32f4xx_gpio.o
 .text          0x00000000        0x0 cmsis_lib/source/stm32f4xx_wwdg.o
 .data          0x00000000        0x0 cmsis_lib/source/stm32f4xx_wwdg.o
 .bss           0x00000000        0x0 cmsis_lib/source/stm32f4xx_wwdg.o
 .text.WWDG_DeInit
                0x00000000       0x1c cmsis_lib/source/stm32f4xx_wwdg.o
 .text.WWDG_SetPrescaler
                0x00000000       0x34 cmsis_lib/source/stm32f4xx_wwdg.o
 .text.WWDG_SetWindowValue
                0x00000000       0x38 cmsis_lib/source/stm32f4xx_wwdg.o
 .text.WWDG_EnableIT
                0x00000000       0x18 cmsis_lib/source/stm32f4xx_wwdg.o
 .text.WWDG_SetCounter
                0x00000000       0x24 cmsis_lib/source/stm32f4xx_wwdg.o
 .text.WWDG_Enable
                0x00000000       0x24 cmsis_lib/source/stm32f4xx_wwdg.o
 .text.WWDG_GetFlagStatus
                0x00000000       0x30 cmsis_lib/source/stm32f4xx_wwdg.o
 .text.WWDG_ClearFlag
                0x00000000       0x18 cmsis_lib/source/stm32f4xx_wwdg.o
 .comment       0x00000000       0x2e cmsis_lib/source/stm32f4xx_wwdg.o
 .ARM.attributes
                0x00000000       0x39 cmsis_lib/source/stm32f4xx_wwdg.o
 .text          0x00000000        0x0 cmsis_lib/source/stm32f4xx_adc.o
 .data          0x00000000        0x0 cmsis_lib/source/stm32f4xx_adc.o
 .bss           0x00000000        0x0 cmsis_lib/source/stm32f4xx_adc.o
 .text.ADC_DeInit
                0x00000000       0x1c cmsis_lib/source/stm32f4xx_adc.o
 .text.ADC_CommonStructInit
                0x00000000       0x2c cmsis_lib/source/stm32f4xx_adc.o
 .text.ADC_AnalogWatchdogCmd
                0x00000000       0x38 cmsis_lib/source/stm32f4xx_adc.o
 .text.ADC_AnalogWatchdogThresholdsConfig
                0x00000000       0x28 cmsis_lib/source/stm32f4xx_adc.o
 .text.ADC_AnalogWatchdogSingleChannelConfig
                0x00000000       0x38 cmsis_lib/source/stm32f4xx_adc.o
 .text.ADC_TempSensorVrefintCmd
                0x00000000       0x38 cmsis_lib/source/stm32f4xx_adc.o
 .text.ADC_VBATCmd
                0x00000000       0x38 cmsis_lib/source/stm32f4xx_adc.o
 .text.ADC_GetSoftwareStartConvStatus
                0x00000000       0x30 cmsis_lib/source/stm32f4xx_adc.o
 .text.ADC_EOCOnEachRegularChannelCmd
                0x00000000       0x38 cmsis_lib/source/stm32f4xx_adc.o
 .text.ADC_ContinuousModeCmd
                0x00000000       0x38 cmsis_lib/source/stm32f4xx_adc.o
 .text.ADC_DiscModeChannelCountConfig
                0x00000000       0x44 cmsis_lib/source/stm32f4xx_adc.o
 .text.ADC_DiscModeCmd
                0x00000000       0x38 cmsis_lib/source/stm32f4xx_adc.o
 .text.ADC_GetMultiModeConversionValue
                0x00000000       0x18 cmsis_lib/source/stm32f4xx_adc.o
 .text.ADC_DMACmd
                0x00000000       0x38 cmsis_lib/source/stm32f4xx_adc.o
 .text.ADC_DMARequestAfterLastTransferCmd
                0x00000000       0x38 cmsis_lib/source/stm32f4xx_adc.o
 .text.ADC_MultiModeDMARequestAfterLastTransferCmd
                0x00000000       0x38 cmsis_lib/source/stm32f4xx_adc.o
 .text.ADC_InjectedChannelConfig
                0x00000000      0x114 cmsis_lib/source/stm32f4xx_adc.o
 .text.ADC_InjectedSequencerLengthConfig
                0x00000000       0x44 cmsis_lib/source/stm32f4xx_adc.o
 .text.ADC_SetInjectedOffset
                0x00000000       0x30 cmsis_lib/source/stm32f4xx_adc.o
 .text.ADC_ExternalTrigInjectedConvConfig
                0x00000000       0x34 cmsis_lib/source/stm32f4xx_adc.o
 .text.ADC_ExternalTrigInjectedConvEdgeConfig
                0x00000000       0x34 cmsis_lib/source/stm32f4xx_adc.o
 .text.ADC_SoftwareStartInjectedConv
                0x00000000       0x20 cmsis_lib/source/stm32f4xx_adc.o
 .text.ADC_GetSoftwareStartInjectedConvCmdStatus
                0x00000000       0x30 cmsis_lib/source/stm32f4xx_adc.o
 .text.ADC_AutoInjectedConvCmd
                0x00000000       0x38 cmsis_lib/source/stm32f4xx_adc.o
 .text.ADC_InjectedDiscModeCmd
                0x00000000       0x38 cmsis_lib/source/stm32f4xx_adc.o
 .text.ADC_GetInjectedConversionValue
                0x00000000       0x30 cmsis_lib/source/stm32f4xx_adc.o
 .text.ADC_ITConfig
                0x00000000       0x50 cmsis_lib/source/stm32f4xx_adc.o
 .text.ADC_GetFlagStatus
                0x00000000       0x34 cmsis_lib/source/stm32f4xx_adc.o
 .text.ADC_ClearFlag
                0x00000000       0x20 cmsis_lib/source/stm32f4xx_adc.o
 .text.ADC_GetITStatus
                0x00000000       0x5c cmsis_lib/source/stm32f4xx_adc.o
 .text.ADC_ClearITPendingBit
                0x00000000       0x2c cmsis_lib/source/stm32f4xx_adc.o
 .text          0x00000000        0x0 cmsis_lib/source/stm32f4xx_exti.o
 .data          0x00000000        0x0 cmsis_lib/source/stm32f4xx_exti.o
 .bss           0x00000000        0x0 cmsis_lib/source/stm32f4xx_exti.o
 .text.EXTI_DeInit
                0x00000000       0x34 cmsis_lib/source/stm32f4xx_exti.o
 .text.EXTI_StructInit
                0x00000000       0x2c cmsis_lib/source/stm32f4xx_exti.o
 .text.EXTI_GenerateSWInterrupt
                0x00000000       0x24 cmsis_lib/source/stm32f4xx_exti.o
 .text.EXTI_GetFlagStatus
                0x00000000       0x34 cmsis_lib/source/stm32f4xx_exti.o
 .text.EXTI_ClearFlag
                0x00000000       0x1c cmsis_lib/source/stm32f4xx_exti.o
 .text          0x00000000        0x0 cmsis_lib/source/stm32f4xx_i2c.o
 .data          0x00000000        0x0 cmsis_lib/source/stm32f4xx_i2c.o
 .bss           0x00000000        0x0 cmsis_lib/source/stm32f4xx_i2c.o
 .text.I2C_StructInit
                0x00000000       0x3c cmsis_lib/source/stm32f4xx_i2c.o
 .text.I2C_OwnAddress2Config
                0x00000000       0x40 cmsis_lib/source/stm32f4xx_i2c.o
 .text.I2C_DualAddressCmd
                0x00000000       0x40 cmsis_lib/source/stm32f4xx_i2c.o
 .text.I2C_GeneralCallCmd
                0x00000000       0x40 cmsis_lib/source/stm32f4xx_i2c.o
 .text.I2C_StretchClockCmd
                0x00000000       0x40 cmsis_lib/source/stm32f4xx_i2c.o
 .text.I2C_FastModeDutyCycleConfig
                0x00000000       0x40 cmsis_lib/source/stm32f4xx_i2c.o
 .text.I2C_NACKPositionConfig
                0x00000000       0x40 cmsis_lib/source/stm32f4xx_i2c.o
 .text.I2C_SMBusAlertConfig
                0x00000000       0x40 cmsis_lib/source/stm32f4xx_i2c.o
 .text.I2C_ARPCmd
                0x00000000       0x40 cmsis_lib/source/stm32f4xx_i2c.o
 .text.I2C_TransmitPEC
                0x00000000       0x40 cmsis_lib/source/stm32f4xx_i2c.o
 .text.I2C_PECPositionConfig
                0x00000000       0x40 cmsis_lib/source/stm32f4xx_i2c.o
 .text.I2C_CalculatePEC
                0x00000000       0x40 cmsis_lib/source/stm32f4xx_i2c.o
 .text.I2C_GetPEC
                0x00000000       0x20 cmsis_lib/source/stm32f4xx_i2c.o
 .text.I2C_DMACmd
                0x00000000       0x40 cmsis_lib/source/stm32f4xx_i2c.o
 .text.I2C_DMALastTransferCmd
                0x00000000       0x40 cmsis_lib/source/stm32f4xx_i2c.o
 .text.I2C_ReadRegister
                0x00000000       0x30 cmsis_lib/source/stm32f4xx_i2c.o
 .text.I2C_ITConfig
                0x00000000       0x48 cmsis_lib/source/stm32f4xx_i2c.o
 .text.I2C_GetLastEvent
                0x00000000       0x44 cmsis_lib/source/stm32f4xx_i2c.o
 .text.I2C_GetITStatus
                0x00000000       0x5c cmsis_lib/source/stm32f4xx_i2c.o
 .text.I2C_ClearITPendingBit
                0x00000000       0x2c cmsis_lib/source/stm32f4xx_i2c.o
 .text          0x00000000        0x0 cmsis_lib/source/stm32f4xx_dac.o
 .data          0x00000000        0x0 cmsis_lib/source/stm32f4xx_dac.o
 .bss           0x00000000        0x0 cmsis_lib/source/stm32f4xx_dac.o
 .text.DAC_DeInit
                0x00000000       0x1c cmsis_lib/source/stm32f4xx_dac.o
 .text.DAC_StructInit
                0x00000000       0x2c cmsis_lib/source/stm32f4xx_dac.o
 .text.DAC_SoftwareTriggerCmd
                0x00000000       0x4c cmsis_lib/source/stm32f4xx_dac.o
 .text.DAC_DualSoftwareTriggerCmd
                0x00000000       0x38 cmsis_lib/source/stm32f4xx_dac.o
 .text.DAC_WaveGenerationCmd
                0x00000000       0x4c cmsis_lib/source/stm32f4xx_dac.o
 .text.DAC_SetDualChannelData
                0x00000000       0x58 cmsis_lib/source/stm32f4xx_dac.o
 .text.DAC_GetDataOutputValue
                0x00000000       0x34 cmsis_lib/source/stm32f4xx_dac.o
 .text.DAC_DMACmd
                0x00000000       0x4c cmsis_lib/source/stm32f4xx_dac.o
 .text.DAC_ITConfig
                0x00000000       0x4c cmsis_lib/source/stm32f4xx_dac.o
 .text.DAC_GetFlagStatus
                0x00000000       0x3c cmsis_lib/source/stm32f4xx_dac.o
 .text.DAC_ClearFlag
                0x00000000       0x24 cmsis_lib/source/stm32f4xx_dac.o
 .text.DAC_GetITStatus
                0x00000000       0x58 cmsis_lib/source/stm32f4xx_dac.o
 .text.DAC_ClearITPendingBit
                0x00000000       0x24 cmsis_lib/source/stm32f4xx_dac.o
 .text          0x00000000        0x0 cmsis_lib/source/stm32f4xx_fsmc.o
 .data          0x00000000        0x0 cmsis_lib/source/stm32f4xx_fsmc.o
 .bss           0x00000000        0x0 cmsis_lib/source/stm32f4xx_fsmc.o
 .text.FSMC_NORSRAMDeInit
                0x00000000       0x58 cmsis_lib/source/stm32f4xx_fsmc.o
 .text.FSMC_NORSRAMStructInit
                0x00000000       0xd4 cmsis_lib/source/stm32f4xx_fsmc.o
 .text.FSMC_NANDDeInit
                0x00000000       0x5c cmsis_lib/source/stm32f4xx_fsmc.o
 .text.FSMC_NANDInit
                0x00000000       0xcc cmsis_lib/source/stm32f4xx_fsmc.o
 .text.FSMC_NANDStructInit
                0x00000000       0x7c cmsis_lib/source/stm32f4xx_fsmc.o
 .text.FSMC_NANDCmd
                0x00000000       0x6c cmsis_lib/source/stm32f4xx_fsmc.o
 .text.FSMC_NANDECCCmd
                0x00000000       0x6c cmsis_lib/source/stm32f4xx_fsmc.o
 .text.FSMC_GetECC
                0x00000000       0x38 cmsis_lib/source/stm32f4xx_fsmc.o
 .text.FSMC_PCCARDDeInit
                0x00000000       0x34 cmsis_lib/source/stm32f4xx_fsmc.o
 .text.FSMC_PCCARDInit
                0x00000000       0xac cmsis_lib/source/stm32f4xx_fsmc.o
 .text.FSMC_PCCARDStructInit
                0x00000000       0x84 cmsis_lib/source/stm32f4xx_fsmc.o
 .text.FSMC_PCCARDCmd
                0x00000000       0x3c cmsis_lib/source/stm32f4xx_fsmc.o
 .text.FSMC_ITConfig
                0x00000000       0xa0 cmsis_lib/source/stm32f4xx_fsmc.o
 .text.FSMC_GetFlagStatus
                0x00000000       0x64 cmsis_lib/source/stm32f4xx_fsmc.o
 .text.FSMC_ClearFlag
                0x00000000       0x5c cmsis_lib/source/stm32f4xx_fsmc.o
 .text.FSMC_GetITStatus
                0x00000000       0x80 cmsis_lib/source/stm32f4xx_fsmc.o
 .text.FSMC_ClearITPendingBit
                0x00000000       0x64 cmsis_lib/source/stm32f4xx_fsmc.o
 .text          0x00000000        0x0 cmsis_lib/source/stm32f4xx_flash.o
 .data          0x00000000        0x0 cmsis_lib/source/stm32f4xx_flash.o
 .bss           0x00000000        0x0 cmsis_lib/source/stm32f4xx_flash.o
 .text.FLASH_SetLatency
                0x00000000       0x20 cmsis_lib/source/stm32f4xx_flash.o
 .text.FLASH_PrefetchBufferCmd
                0x00000000       0x38 cmsis_lib/source/stm32f4xx_flash.o
 .text.FLASH_InstructionCacheCmd
                0x00000000       0x38 cmsis_lib/source/stm32f4xx_flash.o
 .text.FLASH_DataCacheCmd
                0x00000000       0x38 cmsis_lib/source/stm32f4xx_flash.o
 .text.FLASH_InstructionCacheReset
                0x00000000       0x1c cmsis_lib/source/stm32f4xx_flash.o
 .text.FLASH_DataCacheReset
                0x00000000       0x1c cmsis_lib/source/stm32f4xx_flash.o
 .text.FLASH_EraseAllSectors
                0x00000000       0xa0 cmsis_lib/source/stm32f4xx_flash.o
 .text.FLASH_ProgramDoubleWord
                0x00000000       0x70 cmsis_lib/source/stm32f4xx_flash.o
 .text.FLASH_ProgramWord
                0x00000000       0x68 cmsis_lib/source/stm32f4xx_flash.o
 .text.FLASH_ProgramByte
                0x00000000       0x68 cmsis_lib/source/stm32f4xx_flash.o
 .text.FLASH_OB_Unlock
                0x00000000       0x30 cmsis_lib/source/stm32f4xx_flash.o
 .text.FLASH_OB_Lock
                0x00000000       0x1c cmsis_lib/source/stm32f4xx_flash.o
 .text.FLASH_OB_WRPConfig
                0x00000000       0x58 cmsis_lib/source/stm32f4xx_flash.o
 .text.FLASH_OB_RDPConfig
                0x00000000       0x2c cmsis_lib/source/stm32f4xx_flash.o
 .text.FLASH_OB_UserConfig
                0x00000000       0x58 cmsis_lib/source/stm32f4xx_flash.o
 .text.FLASH_OB_BORConfig
                0x00000000       0x38 cmsis_lib/source/stm32f4xx_flash.o
 .text.FLASH_OB_Launch
                0x00000000       0x30 cmsis_lib/source/stm32f4xx_flash.o
 .text.FLASH_OB_GetUser
                0x00000000       0x1c cmsis_lib/source/stm32f4xx_flash.o
 .text.FLASH_OB_GetWRP
                0x00000000       0x18 cmsis_lib/source/stm32f4xx_flash.o
 .text.FLASH_OB_GetRDP
                0x00000000       0x30 cmsis_lib/source/stm32f4xx_flash.o
 .text.FLASH_OB_GetBOR
                0x00000000       0x20 cmsis_lib/source/stm32f4xx_flash.o
 .text.FLASH_ITConfig
                0x00000000       0x3c cmsis_lib/source/stm32f4xx_flash.o
 .text.FLASH_GetFlagStatus
                0x00000000       0x34 cmsis_lib/source/stm32f4xx_flash.o
 .text.FLASH_ClearFlag
                0x00000000       0x1c cmsis_lib/source/stm32f4xx_flash.o
 .text          0x00000000        0x0 cmsis_lib/source/stm32f4xx_spi.o
 .data          0x00000000        0x0 cmsis_lib/source/stm32f4xx_spi.o
 .bss           0x00000000        0x0 cmsis_lib/source/stm32f4xx_spi.o
 .text.SPI_StructInit
                0x00000000       0x48 cmsis_lib/source/stm32f4xx_spi.o
 .text.I2S_StructInit
                0x00000000       0x38 cmsis_lib/source/stm32f4xx_spi.o
 .text.SPI_DataSizeConfig
                0x00000000       0x38 cmsis_lib/source/stm32f4xx_spi.o
 .text.SPI_BiDirectionalLineConfig
                0x00000000       0x40 cmsis_lib/source/stm32f4xx_spi.o
 .text.SPI_NSSInternalSoftwareConfig
                0x00000000       0x44 cmsis_lib/source/stm32f4xx_spi.o
 .text.SPI_SSOutputCmd
                0x00000000       0x40 cmsis_lib/source/stm32f4xx_spi.o
 .text.SPI_TIModeCmd
                0x00000000       0x40 cmsis_lib/source/stm32f4xx_spi.o
 .text.SPI_CalculateCRC
                0x00000000       0x40 cmsis_lib/source/stm32f4xx_spi.o
 .text.SPI_TransmitCRC
                0x00000000       0x24 cmsis_lib/source/stm32f4xx_spi.o
 .text.SPI_GetCRC
                0x00000000       0x34 cmsis_lib/source/stm32f4xx_spi.o
 .text.SPI_GetCRCPolynomial
                0x00000000       0x1c cmsis_lib/source/stm32f4xx_spi.o
 .text.SPI_I2S_ITConfig
                0x00000000       0x60 cmsis_lib/source/stm32f4xx_spi.o
 .text.SPI_I2S_ClearFlag
                0x00000000       0x20 cmsis_lib/source/stm32f4xx_spi.o
 .text.SPI_I2S_GetITStatus
                0x00000000       0x78 cmsis_lib/source/stm32f4xx_spi.o
 .text.SPI_I2S_ClearITPendingBit
                0x00000000       0x34 cmsis_lib/source/stm32f4xx_spi.o
 .text          0x00000000        0x0 cmsis_lib/source/stm32f4xx_dma.o
 .data          0x00000000        0x0 cmsis_lib/source/stm32f4xx_dma.o
 .bss           0x00000000        0x0 cmsis_lib/source/stm32f4xx_dma.o
 .text.DMA_StructInit
                0x00000000       0x6c cmsis_lib/source/stm32f4xx_dma.o
 .text.DMA_PeriphIncOffsetSizeConfig
                0x00000000       0x34 cmsis_lib/source/stm32f4xx_dma.o
 .text.DMA_FlowControllerConfig
                0x00000000       0x34 cmsis_lib/source/stm32f4xx_dma.o
 .text.DMA_SetCurrDataCounter
                0x00000000       0x1c cmsis_lib/source/stm32f4xx_dma.o
 .text.DMA_GetCurrDataCounter
                0x00000000       0x1c cmsis_lib/source/stm32f4xx_dma.o
 .text.DMA_DoubleBufferModeConfig
                0x00000000       0x3c cmsis_lib/source/stm32f4xx_dma.o
 .text.DMA_DoubleBufferModeCmd
                0x00000000       0x38 cmsis_lib/source/stm32f4xx_dma.o
 .text.DMA_MemoryTargetConfig
                0x00000000       0x2c cmsis_lib/source/stm32f4xx_dma.o
 .text.DMA_GetCurrentMemoryTarget
                0x00000000       0x30 cmsis_lib/source/stm32f4xx_dma.o
 .text.DMA_GetCmdStatus
                0x00000000       0x30 cmsis_lib/source/stm32f4xx_dma.o
 .text.DMA_GetFIFOStatus
                0x00000000       0x24 cmsis_lib/source/stm32f4xx_dma.o
 .text.DMA_GetITStatus
                0x00000000       0xb0 cmsis_lib/source/stm32f4xx_dma.o
 .text.DMA_ClearITPendingBit
                0x00000000       0x5c cmsis_lib/source/stm32f4xx_dma.o
 .text          0x00000000        0x0 cmsis_lib/source/stm32f4xx_rtc.o
 .data          0x00000000        0x0 cmsis_lib/source/stm32f4xx_rtc.o
 .bss           0x00000000        0x0 cmsis_lib/source/stm32f4xx_rtc.o
 .text.RTC_DeInit
                0x00000000       0xdc cmsis_lib/source/stm32f4xx_rtc.o
 .text.RTC_Init
                0x00000000       0x78 cmsis_lib/source/stm32f4xx_rtc.o
 .text.RTC_StructInit
                0x00000000       0x24 cmsis_lib/source/stm32f4xx_rtc.o
 .text.RTC_WriteProtectionCmd
                0x00000000       0x34 cmsis_lib/source/stm32f4xx_rtc.o
 .text.RTC_EnterInitMode
                0x00000000       0x74 cmsis_lib/source/stm32f4xx_rtc.o
 .text.RTC_ExitInitMode
                0x00000000       0x1c cmsis_lib/source/stm32f4xx_rtc.o
 .text.RTC_WaitForSynchro
                0x00000000       0x78 cmsis_lib/source/stm32f4xx_rtc.o
 .text.RTC_RefClockCmd
                0x00000000       0x68 cmsis_lib/source/stm32f4xx_rtc.o
 .text.RTC_BypassShadowCmd
                0x00000000       0x4c cmsis_lib/source/stm32f4xx_rtc.o
 .text.RTC_SetTime
                0x00000000      0x104 cmsis_lib/source/stm32f4xx_rtc.o
 .text.RTC_TimeStructInit
                0x00000000       0x2c cmsis_lib/source/stm32f4xx_rtc.o
 .text.RTC_GetTime
                0x00000000       0x9c cmsis_lib/source/stm32f4xx_rtc.o
 .text.RTC_GetSubSecond
                0x00000000       0x28 cmsis_lib/source/stm32f4xx_rtc.o
 .text.RTC_SetDate
                0x00000000      0x10c cmsis_lib/source/stm32f4xx_rtc.o
 .text.RTC_DateStructInit
                0x00000000       0x2c cmsis_lib/source/stm32f4xx_rtc.o
 .text.RTC_GetDate
                0x00000000       0x9c cmsis_lib/source/stm32f4xx_rtc.o
 .text.RTC_SetAlarm
                0x00000000      0x138 cmsis_lib/source/stm32f4xx_rtc.o
 .text.RTC_AlarmStructInit
                0x00000000       0x3c cmsis_lib/source/stm32f4xx_rtc.o
 .text.RTC_GetAlarm
                0x00000000       0xd8 cmsis_lib/source/stm32f4xx_rtc.o
 .text.RTC_AlarmCmd
                0x00000000       0x9c cmsis_lib/source/stm32f4xx_rtc.o
 .text.RTC_AlarmSubSecondConfig
                0x00000000       0x50 cmsis_lib/source/stm32f4xx_rtc.o
 .text.RTC_GetAlarmSubSecond
                0x00000000       0x3c cmsis_lib/source/stm32f4xx_rtc.o
 .text.RTC_WakeUpClockConfig
                0x00000000       0x40 cmsis_lib/source/stm32f4xx_rtc.o
 .text.RTC_SetWakeUpCounter
                0x00000000       0x30 cmsis_lib/source/stm32f4xx_rtc.o
 .text.RTC_GetWakeUpCounter
                0x00000000       0x18 cmsis_lib/source/stm32f4xx_rtc.o
 .text.RTC_WakeUpCmd
                0x00000000       0x94 cmsis_lib/source/stm32f4xx_rtc.o
 .text.RTC_DayLightSavingConfig
                0x00000000       0x48 cmsis_lib/source/stm32f4xx_rtc.o
 .text.RTC_GetStoreOperation
                0x00000000       0x1c cmsis_lib/source/stm32f4xx_rtc.o
 .text.RTC_OutputConfig
                0x00000000       0x48 cmsis_lib/source/stm32f4xx_rtc.o
 .text.RTC_CoarseCalibConfig
                0x00000000       0x50 cmsis_lib/source/stm32f4xx_rtc.o
 .text.RTC_CoarseCalibCmd
                0x00000000       0x68 cmsis_lib/source/stm32f4xx_rtc.o
 .text.RTC_CalibOutputCmd
                0x00000000       0x4c cmsis_lib/source/stm32f4xx_rtc.o
 .text.RTC_CalibOutputConfig
                0x00000000       0x40 cmsis_lib/source/stm32f4xx_rtc.o
 .text.RTC_SmoothCalibConfig
                0x00000000       0x84 cmsis_lib/source/stm32f4xx_rtc.o
 .text.RTC_TimeStampCmd
                0x00000000       0x60 cmsis_lib/source/stm32f4xx_rtc.o
 .text.RTC_GetTimeStamp
                0x00000000      0x114 cmsis_lib/source/stm32f4xx_rtc.o
 .text.RTC_GetTimeStampSubSecond
                0x00000000       0x18 cmsis_lib/source/stm32f4xx_rtc.o
 .text.RTC_TamperTriggerConfig
                0x00000000       0x40 cmsis_lib/source/stm32f4xx_rtc.o
 .text.RTC_TamperCmd
                0x00000000       0x3c cmsis_lib/source/stm32f4xx_rtc.o
 .text.RTC_TamperFilterConfig
                0x00000000       0x30 cmsis_lib/source/stm32f4xx_rtc.o
 .text.RTC_TamperSamplingFreqConfig
                0x00000000       0x30 cmsis_lib/source/stm32f4xx_rtc.o
 .text.RTC_TamperPinsPrechargeDuration
                0x00000000       0x30 cmsis_lib/source/stm32f4xx_rtc.o
 .text.RTC_TimeStampOnTamperDetectionCmd
                0x00000000       0x38 cmsis_lib/source/stm32f4xx_rtc.o
 .text.RTC_TamperPullUpCmd
                0x00000000       0x38 cmsis_lib/source/stm32f4xx_rtc.o
 .text.RTC_WriteBackupRegister
                0x00000000       0x30 cmsis_lib/source/stm32f4xx_rtc.o
 .text.RTC_ReadBackupRegister
                0x00000000       0x30 cmsis_lib/source/stm32f4xx_rtc.o
 .text.RTC_TamperPinSelection
                0x00000000       0x30 cmsis_lib/source/stm32f4xx_rtc.o
 .text.RTC_TimeStampPinSelection
                0x00000000       0x30 cmsis_lib/source/stm32f4xx_rtc.o
 .text.RTC_OutputTypeConfig
                0x00000000       0x30 cmsis_lib/source/stm32f4xx_rtc.o
 .text.RTC_SynchroShiftConfig
                0x00000000       0x9c cmsis_lib/source/stm32f4xx_rtc.o
 .text.RTC_ITConfig
                0x00000000       0x78 cmsis_lib/source/stm32f4xx_rtc.o
 .text.RTC_GetFlagStatus
                0x00000000       0x44 cmsis_lib/source/stm32f4xx_rtc.o
 .text.RTC_ClearFlag
                0x00000000       0x30 cmsis_lib/source/stm32f4xx_rtc.o
 .text.RTC_GetITStatus
                0x00000000       0x68 cmsis_lib/source/stm32f4xx_rtc.o
 .text.RTC_ClearITPendingBit
                0x00000000       0x38 cmsis_lib/source/stm32f4xx_rtc.o
 .text.RTC_ByteToBcd2
                0x00000000       0x3c cmsis_lib/source/stm32f4xx_rtc.o
 .text.RTC_Bcd2ToByte
                0x00000000       0x38 cmsis_lib/source/stm32f4xx_rtc.o
 .comment       0x00000000       0x2e cmsis_lib/source/stm32f4xx_rtc.o
 .ARM.attributes
                0x00000000       0x39 cmsis_lib/source/stm32f4xx_rtc.o
 .text          0x00000000        0x0 cmsis_lib/source/stm32f4xx_tim.o
 .data          0x00000000        0x0 cmsis_lib/source/stm32f4xx_tim.o
 .bss           0x00000000        0x0 cmsis_lib/source/stm32f4xx_tim.o
 .text.TIM_DeInit
                0x00000000      0x1bc cmsis_lib/source/stm32f4xx_tim.o
 .text.TIM_TimeBaseStructInit
                0x00000000       0x34 cmsis_lib/source/stm32f4xx_tim.o
 .text.TIM_PrescalerConfig
                0x00000000       0x28 cmsis_lib/source/stm32f4xx_tim.o
 .text.TIM_CounterModeConfig
                0x00000000       0x38 cmsis_lib/source/stm32f4xx_tim.o
 .text.TIM_SetCounter
                0x00000000       0x1c cmsis_lib/source/stm32f4xx_tim.o
 .text.TIM_SetAutoreload
                0x00000000       0x1c cmsis_lib/source/stm32f4xx_tim.o
 .text.TIM_GetPrescaler
                0x00000000       0x1c cmsis_lib/source/stm32f4xx_tim.o
 .text.TIM_UpdateDisableConfig
                0x00000000       0x40 cmsis_lib/source/stm32f4xx_tim.o
 .text.TIM_UpdateRequestConfig
                0x00000000       0x40 cmsis_lib/source/stm32f4xx_tim.o
 .text.TIM_ARRPreloadConfig
                0x00000000       0x40 cmsis_lib/source/stm32f4xx_tim.o
 .text.TIM_SelectOnePulseMode
                0x00000000       0x38 cmsis_lib/source/stm32f4xx_tim.o
 .text.TIM_SetClockDivision
                0x00000000       0x38 cmsis_lib/source/stm32f4xx_tim.o
 .text.TIM_OC1Init
                0x00000000       0xf4 cmsis_lib/source/stm32f4xx_tim.o
 .text.TIM_OC2Init
                0x00000000      0x110 cmsis_lib/source/stm32f4xx_tim.o
 .text.TIM_OC3Init
                0x00000000      0x10c cmsis_lib/source/stm32f4xx_tim.o
 .text.TIM_OC4Init
                0x00000000       0xcc cmsis_lib/source/stm32f4xx_tim.o
 .text.TIM_OCStructInit
                0x00000000       0x44 cmsis_lib/source/stm32f4xx_tim.o
 .text.TIM_SelectOCxM
                0x00000000       0xac cmsis_lib/source/stm32f4xx_tim.o
 .text.TIM_SetCompare1
                0x00000000       0x1c cmsis_lib/source/stm32f4xx_tim.o
 .text.TIM_SetCompare2
                0x00000000       0x1c cmsis_lib/source/stm32f4xx_tim.o
 .text.TIM_SetCompare3
                0x00000000       0x1c cmsis_lib/source/stm32f4xx_tim.o
 .text.TIM_SetCompare4
                0x00000000       0x1c cmsis_lib/source/stm32f4xx_tim.o
 .text.TIM_ForcedOC1Config
                0x00000000       0x38 cmsis_lib/source/stm32f4xx_tim.o
 .text.TIM_ForcedOC2Config
                0x00000000       0x3c cmsis_lib/source/stm32f4xx_tim.o
 .text.TIM_ForcedOC3Config
                0x00000000       0x38 cmsis_lib/source/stm32f4xx_tim.o
 .text.TIM_ForcedOC4Config
                0x00000000       0x3c cmsis_lib/source/stm32f4xx_tim.o
 .text.TIM_OC1PreloadConfig
                0x00000000       0x38 cmsis_lib/source/stm32f4xx_tim.o
 .text.TIM_OC2PreloadConfig
                0x00000000       0x3c cmsis_lib/source/stm32f4xx_tim.o
 .text.TIM_OC3PreloadConfig
                0x00000000       0x38 cmsis_lib/source/stm32f4xx_tim.o
 .text.TIM_OC4PreloadConfig
                0x00000000       0x3c cmsis_lib/source/stm32f4xx_tim.o
 .text.TIM_OC1FastConfig
                0x00000000       0x38 cmsis_lib/source/stm32f4xx_tim.o
 .text.TIM_OC2FastConfig
                0x00000000       0x3c cmsis_lib/source/stm32f4xx_tim.o
 .text.TIM_OC3FastConfig
                0x00000000       0x38 cmsis_lib/source/stm32f4xx_tim.o
 .text.TIM_OC4FastConfig
                0x00000000       0x3c cmsis_lib/source/stm32f4xx_tim.o
 .text.TIM_ClearOC1Ref
                0x00000000       0x38 cmsis_lib/source/stm32f4xx_tim.o
 .text.TIM_ClearOC2Ref
                0x00000000       0x3c cmsis_lib/source/stm32f4xx_tim.o
 .text.TIM_ClearOC3Ref
                0x00000000       0x38 cmsis_lib/source/stm32f4xx_tim.o
 .text.TIM_ClearOC4Ref
                0x00000000       0x3c cmsis_lib/source/stm32f4xx_tim.o
 .text.TIM_OC1PolarityConfig
                0x00000000       0x38 cmsis_lib/source/stm32f4xx_tim.o
 .text.TIM_OC1NPolarityConfig
                0x00000000       0x38 cmsis_lib/source/stm32f4xx_tim.o
 .text.TIM_OC2PolarityConfig
                0x00000000       0x3c cmsis_lib/source/stm32f4xx_tim.o
 .text.TIM_OC2NPolarityConfig
                0x00000000       0x3c cmsis_lib/source/stm32f4xx_tim.o
 .text.TIM_OC3PolarityConfig
                0x00000000       0x3c cmsis_lib/source/stm32f4xx_tim.o
 .text.TIM_OC3NPolarityConfig
                0x00000000       0x3c cmsis_lib/source/stm32f4xx_tim.o
 .text.TIM_OC4PolarityConfig
                0x00000000       0x3c cmsis_lib/source/stm32f4xx_tim.o
 .text.TIM_CCxCmd
                0x00000000       0x54 cmsis_lib/source/stm32f4xx_tim.o
 .text.TIM_CCxNCmd
                0x00000000       0x54 cmsis_lib/source/stm32f4xx_tim.o
 .text.TIM_ICInit
                0x00000000       0xa8 cmsis_lib/source/stm32f4xx_tim.o
 .text.TIM_ICStructInit
                0x00000000       0x30 cmsis_lib/source/stm32f4xx_tim.o
 .text.TIM_PWMIConfig
                0x00000000       0xb8 cmsis_lib/source/stm32f4xx_tim.o
 .text.TIM_GetCapture1
                0x00000000       0x18 cmsis_lib/source/stm32f4xx_tim.o
 .text.TIM_GetCapture2
                0x00000000       0x18 cmsis_lib/source/stm32f4xx_tim.o
 .text.TIM_GetCapture3
                0x00000000       0x18 cmsis_lib/source/stm32f4xx_tim.o
 .text.TIM_GetCapture4
                0x00000000       0x18 cmsis_lib/source/stm32f4xx_tim.o
 .text.TIM_SetIC1Prescaler
                0x00000000       0x38 cmsis_lib/source/stm32f4xx_tim.o
 .text.TIM_SetIC2Prescaler
                0x00000000       0x3c cmsis_lib/source/stm32f4xx_tim.o
 .text.TIM_SetIC3Prescaler
                0x00000000       0x38 cmsis_lib/source/stm32f4xx_tim.o
 .text.TIM_SetIC4Prescaler
                0x00000000       0x3c cmsis_lib/source/stm32f4xx_tim.o
 .text.TIM_BDTRConfig
                0x00000000       0x50 cmsis_lib/source/stm32f4xx_tim.o
 .text.TIM_BDTRStructInit
                0x00000000       0x3c cmsis_lib/source/stm32f4xx_tim.o
 .text.TIM_CtrlPWMOutputs
                0x00000000       0x4c cmsis_lib/source/stm32f4xx_tim.o
 .text.TIM_SelectCOM
                0x00000000       0x40 cmsis_lib/source/stm32f4xx_tim.o
 .text.TIM_CCPreloadControl
                0x00000000       0x40 cmsis_lib/source/stm32f4xx_tim.o
 .text.TIM_ITConfig
                0x00000000       0x48 cmsis_lib/source/stm32f4xx_tim.o
 .text.TIM_GenerateEvent
                0x00000000       0x1c cmsis_lib/source/stm32f4xx_tim.o
 .text.TIM_GetFlagStatus
                0x00000000       0x38 cmsis_lib/source/stm32f4xx_tim.o
 .text.TIM_ClearFlag
                0x00000000       0x20 cmsis_lib/source/stm32f4xx_tim.o
 .text.TIM_DMAConfig
                0x00000000       0x28 cmsis_lib/source/stm32f4xx_tim.o
 .text.TIM_DMACmd
                0x00000000       0x48 cmsis_lib/source/stm32f4xx_tim.o
 .text.TIM_SelectCCDMA
                0x00000000       0x40 cmsis_lib/source/stm32f4xx_tim.o
 .text.TIM_InternalClockConfig
                0x00000000       0x24 cmsis_lib/source/stm32f4xx_tim.o
 .text.TIM_ITRxExternalClockConfig
                0x00000000       0x2c cmsis_lib/source/stm32f4xx_tim.o
 .text.TIM_TIxExternalClockConfig
                0x00000000       0x54 cmsis_lib/source/stm32f4xx_tim.o
 .text.TIM_ETRClockMode1Config
                0x00000000       0x50 cmsis_lib/source/stm32f4xx_tim.o
 .text.TIM_ETRClockMode2Config
                0x00000000       0x30 cmsis_lib/source/stm32f4xx_tim.o
 .text.TIM_SelectInputTrigger
                0x00000000       0x38 cmsis_lib/source/stm32f4xx_tim.o
 .text.TIM_SelectOutputTrigger
                0x00000000       0x38 cmsis_lib/source/stm32f4xx_tim.o
 .text.TIM_SelectSlaveMode
                0x00000000       0x38 cmsis_lib/source/stm32f4xx_tim.o
 .text.TIM_SelectMasterSlaveMode
                0x00000000       0x38 cmsis_lib/source/stm32f4xx_tim.o
 .text.TIM_ETRConfig
                0x00000000       0x48 cmsis_lib/source/stm32f4xx_tim.o
 .text.TIM_SelectHallSensor
                0x00000000       0x40 cmsis_lib/source/stm32f4xx_tim.o
 .text.TIM_RemapConfig
                0x00000000       0x20 cmsis_lib/source/stm32f4xx_tim.o
 .text.TI1_Config
                0x00000000       0x78 cmsis_lib/source/stm32f4xx_tim.o
 .text.TI2_Config
                0x00000000       0x8c cmsis_lib/source/stm32f4xx_tim.o
 .text.TI3_Config
                0x00000000       0x84 cmsis_lib/source/stm32f4xx_tim.o
 .text.TI4_Config
                0x00000000       0x90 cmsis_lib/source/stm32f4xx_tim.o
 .text          0x00000000        0x0 cmsis_lib/source/stm32f4xx_rcc.o
 .data          0x00000000        0x0 cmsis_lib/source/stm32f4xx_rcc.o
 .bss           0x00000000        0x0 cmsis_lib/source/stm32f4xx_rcc.o
 .text.RCC_DeInit
                0x00000000       0x50 cmsis_lib/source/stm32f4xx_rcc.o
 .text.RCC_HSEConfig
                0x00000000       0x24 cmsis_lib/source/stm32f4xx_rcc.o
 .text.RCC_WaitForHSEStartUp
                0x00000000       0x50 cmsis_lib/source/stm32f4xx_rcc.o
 .text.RCC_AdjustHSICalibrationValue
                0x00000000       0x3c cmsis_lib/source/stm32f4xx_rcc.o
 .text.RCC_HSICmd
                0x00000000       0x20 cmsis_lib/source/stm32f4xx_rcc.o
 .text.RCC_LSEConfig
                0x00000000       0x40 cmsis_lib/source/stm32f4xx_rcc.o
 .text.RCC_LSICmd
                0x00000000       0x20 cmsis_lib/source/stm32f4xx_rcc.o
 .text.RCC_PLLConfig
                0x00000000       0x3c cmsis_lib/source/stm32f4xx_rcc.o
 .text.RCC_PLLCmd
                0x00000000       0x20 cmsis_lib/source/stm32f4xx_rcc.o
 .text.RCC_PLLI2SConfig
                0x00000000       0x28 cmsis_lib/source/stm32f4xx_rcc.o
 .text.RCC_PLLI2SCmd
                0x00000000       0x20 cmsis_lib/source/stm32f4xx_rcc.o
 .text.RCC_ClockSecuritySystemCmd
                0x00000000       0x20 cmsis_lib/source/stm32f4xx_rcc.o
 .text.RCC_MCO1Config
                0x00000000       0x3c cmsis_lib/source/stm32f4xx_rcc.o
 .text.RCC_SYSCLKConfig
                0x00000000       0x38 cmsis_lib/source/stm32f4xx_rcc.o
 .text.RCC_GetSYSCLKSource
                0x00000000       0x20 cmsis_lib/source/stm32f4xx_rcc.o
 .text.RCC_HCLKConfig
                0x00000000       0x38 cmsis_lib/source/stm32f4xx_rcc.o
 .text.RCC_PCLK1Config
                0x00000000       0x38 cmsis_lib/source/stm32f4xx_rcc.o
 .text.RCC_PCLK2Config
                0x00000000       0x38 cmsis_lib/source/stm32f4xx_rcc.o
 .text.RCC_RTCCLKConfig
                0x00000000       0x5c cmsis_lib/source/stm32f4xx_rcc.o
 .text.RCC_RTCCLKCmd
                0x00000000       0x20 cmsis_lib/source/stm32f4xx_rcc.o
 .text.RCC_BackupResetCmd
                0x00000000       0x20 cmsis_lib/source/stm32f4xx_rcc.o
 .text.RCC_I2SCLKConfig
                0x00000000       0x1c cmsis_lib/source/stm32f4xx_rcc.o
 .text.RCC_AHB1PeriphResetCmd
                0x00000000       0x3c cmsis_lib/source/stm32f4xx_rcc.o
 .text.RCC_AHB2PeriphResetCmd
                0x00000000       0x3c cmsis_lib/source/stm32f4xx_rcc.o
 .text.RCC_AHB3PeriphResetCmd
                0x00000000       0x3c cmsis_lib/source/stm32f4xx_rcc.o
 .text.RCC_AHB1PeriphClockLPModeCmd
                0x00000000       0x3c cmsis_lib/source/stm32f4xx_rcc.o
 .text.RCC_AHB2PeriphClockLPModeCmd
                0x00000000       0x3c cmsis_lib/source/stm32f4xx_rcc.o
 .text.RCC_AHB3PeriphClockLPModeCmd
                0x00000000       0x3c cmsis_lib/source/stm32f4xx_rcc.o
 .text.RCC_APB1PeriphClockLPModeCmd
                0x00000000       0x3c cmsis_lib/source/stm32f4xx_rcc.o
 .text.RCC_APB2PeriphClockLPModeCmd
                0x00000000       0x3c cmsis_lib/source/stm32f4xx_rcc.o
 .text.RCC_ITConfig
                0x00000000       0x48 cmsis_lib/source/stm32f4xx_rcc.o
 .text.RCC_GetFlagStatus
                0x00000000       0x74 cmsis_lib/source/stm32f4xx_rcc.o
 .text.RCC_ClearFlag
                0x00000000       0x1c cmsis_lib/source/stm32f4xx_rcc.o
 .text.RCC_GetITStatus
                0x00000000       0x38 cmsis_lib/source/stm32f4xx_rcc.o
 .text.RCC_ClearITPendingBit
                0x00000000       0x20 cmsis_lib/source/stm32f4xx_rcc.o
 .text          0x00000000        0x0 drivers/cat/cat_driver.o
 .data          0x00000000        0x0 drivers/cat/cat_driver.o
 .bss           0x00000000        0x0 drivers/cat/cat_driver.o
 .text.cat_driver_thread
                0x00000000       0x1c drivers/cat/cat_driver.o
 .text          0x00000000        0x0 drivers/cat/usb/usbd_usr.o
 .bss           0x00000000        0x0 drivers/cat/usb/usbd_usr.o
 .text          0x00000000        0x0 drivers/cat/usb/usbd_bsp.o
 .data          0x00000000        0x0 drivers/cat/usb/usbd_bsp.o
 .bss           0x00000000        0x0 drivers/cat/usb/usbd_bsp.o
 .text.USBD_OTG_BSP_ConfigVBUS
                0x00000000       0x14 drivers/cat/usb/usbd_bsp.o
 .text.USBD_OTG_BSP_DriveVBUS
                0x00000000       0x18 drivers/cat/usb/usbd_bsp.o
 .text          0x00000000        0x0 drivers/cat/usb/usbd_desc.o
 .bss           0x00000000        0x0 drivers/cat/usb/usbd_desc.o
 .text          0x00000000        0x0 drivers/cat/usb/usbd_cdc_vcp.o
 .bss           0x00000000        0x0 drivers/cat/usb/usbd_cdc_vcp.o
 COMMON         0x00000000       0x10 drivers/cat/usb/usbd_cdc_vcp.o
 .text          0x00000000        0x0 drivers/audio/cw/cw_gen.o
 .data          0x00000000        0x0 drivers/audio/cw/cw_gen.o
 .bss           0x00000000        0x0 drivers/audio/cw/cw_gen.o
 .text          0x00000000        0x0 drivers/audio/audio_driver.o
 .text.audio_driver_stop
                0x00000000        0xc drivers/audio/audio_driver.o
 .text.audio_driver_thread
                0x00000000        0xc drivers/audio/audio_driver.o
 .text          0x00000000        0x0 drivers/audio/codec/codec.o
 .data          0x00000000        0x0 drivers/audio/codec/codec.o
 .bss           0x00000000        0x0 drivers/audio/codec/codec.o
 .text          0x00000000        0x0 drivers/audio/codec/i2s.o
 .data          0x00000000        0x0 drivers/audio/codec/i2s.o
 .text.NVIC_DisableIRQ
                0x00000000       0x34 drivers/audio/codec/i2s.o
 .text.I2S_Block_Stop
                0x00000000       0x50 drivers/audio/codec/i2s.o
 .text          0x00000000        0x0 drivers/audio/softdds/softdds.o
 .data          0x00000000        0x0 drivers/audio/softdds/softdds.o
 .bss           0x00000000        0x0 drivers/audio/softdds/softdds.o
 .text          0x00000000        0x0 drivers/keyboard/usb/usbh_bsp.o
 .data          0x00000000        0x0 drivers/keyboard/usb/usbh_bsp.o
 .text.USBH_OTG_BSP_Init
                0x00000000       0x58 drivers/keyboard/usb/usbh_bsp.o
 .text.USBH_OTG_BSP_EnableInterrupt
                0x00000000       0x30 drivers/keyboard/usb/usbh_bsp.o
 .text.USBH_OTG_BSP_DriveVBUS
                0x00000000       0x18 drivers/keyboard/usb/usbh_bsp.o
 .text.USBH_OTG_BSP_ConfigVBUS
                0x00000000       0x14 drivers/keyboard/usb/usbh_bsp.o
 .text.USBH_OTG_BSP_TimeInit
                0x00000000       0x40 drivers/keyboard/usb/usbh_bsp.o
 .text.USBH_OTG_BSP_uDelay
                0x00000000       0x18 drivers/keyboard/usb/usbh_bsp.o
 .text.USBH_OTG_BSP_mDelay
                0x00000000       0x18 drivers/keyboard/usb/usbh_bsp.o
 .text.BSP_Delay
                0x00000000       0x38 drivers/keyboard/usb/usbh_bsp.o
 .text.BSP_SetTime
                0x00000000       0x84 drivers/keyboard/usb/usbh_bsp.o
 COMMON         0x00000000        0x1 drivers/keyboard/usb/usbh_bsp.o
 .text          0x00000000        0x0 drivers/keyboard/usb/usbh_usr.o
 .data          0x00000000       0x48 drivers/keyboard/usb/usbh_usr.o
 .bss           0x00000000        0x4 drivers/keyboard/usb/usbh_usr.o
 .text.USBH_USR_Init
                0x00000000       0x34 drivers/keyboard/usb/usbh_usr.o
 .rodata        0x00000000       0x74 drivers/keyboard/usb/usbh_usr.o
 .text.USBH_USR_DeviceAttached
                0x00000000       0x1c drivers/keyboard/usb/usbh_usr.o
 .text.USBH_USR_UnrecoveredError
                0x00000000       0x10 drivers/keyboard/usb/usbh_usr.o
 .text.USBH_USR_DeviceDisconnected
                0x00000000       0x18 drivers/keyboard/usb/usbh_usr.o
 .text.USBH_USR_ResetDevice
                0x00000000        0xc drivers/keyboard/usb/usbh_usr.o
 .text.USBH_USR_DeviceSpeedDetected
                0x00000000       0x14 drivers/keyboard/usb/usbh_usr.o
 .text.USBH_USR_Device_DescAvailable
                0x00000000       0x34 drivers/keyboard/usb/usbh_usr.o
 .text.USBH_USR_DeviceAddressAssigned
                0x00000000        0xc drivers/keyboard/usb/usbh_usr.o
 .text.USBH_USR_Configuration_DescAvailable
                0x00000000       0x20 drivers/keyboard/usb/usbh_usr.o
 .text.USBH_USR_Manufacturer_String
                0x00000000       0x14 drivers/keyboard/usb/usbh_usr.o
 .text.USBH_USR_Product_String
                0x00000000       0x14 drivers/keyboard/usb/usbh_usr.o
 .text.USBH_USR_SerialNum_String
                0x00000000       0x14 drivers/keyboard/usb/usbh_usr.o
 .text.USBH_USR_EnumerationDone
                0x00000000        0xc drivers/keyboard/usb/usbh_usr.o
 .text.USBH_USR_DeviceNotSupported
                0x00000000       0x10 drivers/keyboard/usb/usbh_usr.o
 .text.USBH_USR_UserInput
                0x00000000       0x1c drivers/keyboard/usb/usbh_usr.o
 .text.USBH_USR_OverCurrentDetected
                0x00000000        0xc drivers/keyboard/usb/usbh_usr.o
 .text.USR_MOUSE_Init
                0x00000000        0xc drivers/keyboard/usb/usbh_usr.o
 .text.USR_MOUSE_ProcessData
                0x00000000       0x6c drivers/keyboard/usb/usbh_usr.o
 .text.USR_KEYBRD_Init
                0x00000000       0x18 drivers/keyboard/usb/usbh_usr.o
 .text.USR_KEYBRD_ProcessData
                0x00000000       0x20 drivers/keyboard/usb/usbh_usr.o
 .text.USBH_USR_DeInit
                0x00000000        0xc drivers/keyboard/usb/usbh_usr.o
 .comment       0x00000000       0x2e drivers/keyboard/usb/usbh_usr.o
 .ARM.attributes
                0x00000000       0x39 drivers/keyboard/usb/usbh_usr.o
 COMMON         0x00000000       0x36 drivers/keyboard/usb/usbh_usr.o
 .text          0x00000000        0x0 drivers/keyboard/keyb_driver.o
 .data          0x00000000        0x0 drivers/keyboard/keyb_driver.o
 .bss           0x00000000        0x0 drivers/keyboard/keyb_driver.o
 .rodata        0x00000000       0x30 drivers/keyboard/keyb_driver.o
 .text.keyb_driver_init
                0x00000000       0x40 drivers/keyboard/keyb_driver.o
 .text.keyb_driver_thread
                0x00000000       0x18 drivers/keyboard/keyb_driver.o
 COMMON         0x00000000      0xb18 drivers/keyboard/keyb_driver.o
 .text          0x00000000        0x0 drivers/ui/oscillator/ui_si570.o
 .data          0x00000000        0x0 drivers/ui/oscillator/ui_si570.o
 .bss           0x00000000        0x0 drivers/ui/oscillator/ui_si570.o
 .text          0x00000000        0x0 drivers/ui/ui_menu.o
 .text          0x00000000        0x0 drivers/ui/ui_driver.o
 .text.ui_driver_irq
                0x00000000       0xc8 drivers/ui/ui_driver.o
 .text.UiSideToneRef
                0x00000000       0x84 drivers/ui/ui_driver.o
 .text          0x00000000        0x0 drivers/ui/encoder/ui_rotary.o
 .data          0x00000000        0x0 drivers/ui/encoder/ui_rotary.o
 .bss           0x00000000        0x0 drivers/ui/encoder/ui_rotary.o
 .text          0x00000000        0x0 drivers/ui/lcd/ui_lcd_hy28.o
 .data          0x00000000        0x0 drivers/ui/lcd/ui_lcd_hy28.o
 .bss           0x00000000        0x0 drivers/ui/lcd/ui_lcd_hy28.o
 .text.UiLcdHy28_SetPoint
                0x00000000       0x40 drivers/ui/lcd/ui_lcd_hy28.o
 .text.UiLcdHy28_DrawColorPoint
                0x00000000       0x60 drivers/ui/lcd/ui_lcd_hy28.o
 .text.UiLcdHy28_DrawSpectrum
                0x00000000      0x2a0 drivers/ui/lcd/ui_lcd_hy28.o
 .text          0x00000000        0x0 drivers/ui/lcd/ui_lcd_hy28_fonts.o
 .data          0x00000000        0x0 drivers/ui/lcd/ui_lcd_hy28_fonts.o
 .bss           0x00000000        0x0 drivers/ui/lcd/ui_lcd_hy28_fonts.o
 .text          0x00000000        0x0 hardware/mchf_hw_i2c2.o
 .bss           0x00000000        0x0 hardware/mchf_hw_i2c2.o
 .text.Read_24Cxxseq
                0x00000000       0x1c hardware/mchf_hw_i2c2.o
 .text.Write_24Cxxseq
                0x00000000      0x18c hardware/mchf_hw_i2c2.o
 .text          0x00000000        0x0 hardware/mchf_hw_i2c.o
 .bss           0x00000000        0x0 hardware/mchf_hw_i2c.o
 .text          0x00000000        0x0 hardware/mchf_board.o
 .data          0x00000000        0x0 hardware/mchf_board.o
 .bss           0x00000000        0x0 hardware/mchf_board.o
 .text.mchf_board_power_button_input_init
                0x00000000       0x2c hardware/mchf_board.o
 .text.mchf_board_red_led
                0x00000000       0x44 hardware/mchf_board.o
 .text.mchf_board_switch_tx
                0x00000000       0x40 hardware/mchf_board.o
 .text.Write_EEPROM_Signed
                0x00000000       0x5c hardware/mchf_board.o
 .text.Write_SerEEPROM_Signed
                0x00000000       0x24 hardware/mchf_board.o
 .text.copy_ser2virt
                0x00000000       0x4c hardware/mchf_board.o
 .text          0x00000000        0x0 cmsis_boot/system_stm32f4xx.o
 .data          0x00000000        0x0 cmsis_boot/system_stm32f4xx.o
 .bss           0x00000000        0x0 cmsis_boot/system_stm32f4xx.o
 .text.SystemCoreClockUpdate
                0x00000000       0xcc cmsis_boot/system_stm32f4xx.o
 .text          0x00000000        0x0 cmsis_boot/startup/startup_stm32f4xx.o
 .data          0x00000000        0x0 cmsis_boot/startup/startup_stm32f4xx.o
 .bss           0x00000000        0x0 cmsis_boot/startup/startup_stm32f4xx.o
 .text          0x00000000        0x0 syscalls/syscalls.o
 .data          0x00000000        0x0 syscalls/syscalls.o
 .bss           0x00000000        0x4 syscalls/syscalls.o
 .text._sbrk    0x00000000       0x40 syscalls/syscalls.o
 .text.link     0x00000000       0x1c syscalls/syscalls.o
 .text._close   0x00000000       0x18 syscalls/syscalls.o
 .text._fstat   0x00000000       0x20 syscalls/syscalls.o
 .text._isatty  0x00000000       0x18 syscalls/syscalls.o
 .text._lseek   0x00000000       0x1c syscalls/syscalls.o
 .text._read    0x00000000       0x1c syscalls/syscalls.o
 .text._write   0x00000000       0x1c syscalls/syscalls.o
 .text.abort    0x00000000        0x8 syscalls/syscalls.o
 .comment       0x00000000       0x2e syscalls/syscalls.o
 .ARM.attributes
                0x00000000       0x39 syscalls/syscalls.o
 .text          0x00000000        0x0 misc/v_eprom/eeprom.o
 .data          0x00000000        0x0 misc/v_eprom/eeprom.o
 .text          0x00000000        0x0 stdio/printf.o
 .data          0x00000000      0x428 stdio/printf.o
 .bss           0x00000000        0x0 stdio/printf.o
 .text.snprintf
                0x00000000       0x30 stdio/printf.o
 .text.fprintf  0x00000000       0x2c stdio/printf.o
 .text.puts     0x00000000       0x24 stdio/printf.o
 .text          0x00000000        0x0 libs/libarm_cortexM4lf_math.a(arm_fill_q15.o)
 .data          0x00000000        0x0 libs/libarm_cortexM4lf_math.a(arm_fill_q15.o)
 .bss           0x00000000        0x0 libs/libarm_cortexM4lf_math.a(arm_fill_q15.o)
 .text          0x00000000        0x0 libs/libarm_cortexM4lf_math.a(arm_fill_f32.o)
 .data          0x00000000        0x0 libs/libarm_cortexM4lf_math.a(arm_fill_f32.o)
 .bss           0x00000000        0x0 libs/libarm_cortexM4lf_math.a(arm_fill_f32.o)
 .text          0x00000000        0x0 libs/libarm_cortexM4lf_math.a(arm_copy_q15.o)
 .data          0x00000000        0x0 libs/libarm_cortexM4lf_math.a(arm_copy_q15.o)
 .bss           0x00000000        0x0 libs/libarm_cortexM4lf_math.a(arm_copy_q15.o)
 .text          0x00000000        0x0 libs/libarm_cortexM4lf_math.a(arm_copy_f32.o)
 .data          0x00000000        0x0 libs/libarm_cortexM4lf_math.a(arm_copy_f32.o)
 .bss           0x00000000        0x0 libs/libarm_cortexM4lf_math.a(arm_copy_f32.o)
 .text          0x00000000        0x0 libs/libarm_cortexM4lf_math.a(arm_min_q15.o)
 .data          0x00000000        0x0 libs/libarm_cortexM4lf_math.a(arm_min_q15.o)
 .bss           0x00000000        0x0 libs/libarm_cortexM4lf_math.a(arm_min_q15.o)
 .text          0x00000000        0x0 libs/libarm_cortexM4lf_math.a(arm_min_f32.o)
 .data          0x00000000        0x0 libs/libarm_cortexM4lf_math.a(arm_min_f32.o)
 .bss           0x00000000        0x0 libs/libarm_cortexM4lf_math.a(arm_min_f32.o)
 .text          0x00000000        0x0 libs/libarm_cortexM4lf_math.a(arm_mean_q15.o)
 .data          0x00000000        0x0 libs/libarm_cortexM4lf_math.a(arm_mean_q15.o)
 .bss           0x00000000        0x0 libs/libarm_cortexM4lf_math.a(arm_mean_q15.o)
 .text          0x00000000        0x0 libs/libarm_cortexM4lf_math.a(arm_mean_f32.o)
 .data          0x00000000        0x0 libs/libarm_cortexM4lf_math.a(arm_mean_f32.o)
 .bss           0x00000000        0x0 libs/libarm_cortexM4lf_math.a(arm_mean_f32.o)
 .text          0x00000000        0x0 libs/libarm_cortexM4lf_math.a(arm_max_q15.o)
 .data          0x00000000        0x0 libs/libarm_cortexM4lf_math.a(arm_max_q15.o)
 .bss           0x00000000        0x0 libs/libarm_cortexM4lf_math.a(arm_max_q15.o)
 .text          0x00000000        0x0 libs/libarm_cortexM4lf_math.a(arm_max_f32.o)
 .data          0x00000000        0x0 libs/libarm_cortexM4lf_math.a(arm_max_f32.o)
 .bss           0x00000000        0x0 libs/libarm_cortexM4lf_math.a(arm_max_f32.o)
 .text          0x00000000        0x0 libs/libarm_cortexM4lf_math.a(arm_rfft_init_f32.o)
 .data          0x00000000        0x0 libs/libarm_cortexM4lf_math.a(arm_rfft_init_f32.o)
 .bss           0x00000000        0x0 libs/libarm_cortexM4lf_math.a(arm_rfft_init_f32.o)
 .text          0x00000000        0x0 libs/libarm_cortexM4lf_math.a(arm_rfft_f32.o)
 .data          0x00000000        0x0 libs/libarm_cortexM4lf_math.a(arm_rfft_f32.o)
 .bss           0x00000000        0x0 libs/libarm_cortexM4lf_math.a(arm_rfft_f32.o)
 .text          0x00000000        0x0 libs/libarm_cortexM4lf_math.a(arm_cfft_radix4_init_f32.o)
 .data          0x00000000        0x0 libs/libarm_cortexM4lf_math.a(arm_cfft_radix4_init_f32.o)
 .bss           0x00000000        0x0 libs/libarm_cortexM4lf_math.a(arm_cfft_radix4_init_f32.o)
 .text          0x00000000        0x0 libs/libarm_cortexM4lf_math.a(arm_cfft_radix4_f32.o)
 .data          0x00000000        0x0 libs/libarm_cortexM4lf_math.a(arm_cfft_radix4_f32.o)
 .bss           0x00000000        0x0 libs/libarm_cortexM4lf_math.a(arm_cfft_radix4_f32.o)
 .text.arm_cfft_radix4_f32
                0x00000000       0x40 libs/libarm_cortexM4lf_math.a(arm_cfft_radix4_f32.o)
 .text          0x00000000        0x0 libs/libarm_cortexM4lf_math.a(arm_lms_norm_init_f32.o)
 .data          0x00000000        0x0 libs/libarm_cortexM4lf_math.a(arm_lms_norm_init_f32.o)
 .bss           0x00000000        0x0 libs/libarm_cortexM4lf_math.a(arm_lms_norm_init_f32.o)
 .text          0x00000000        0x0 libs/libarm_cortexM4lf_math.a(arm_lms_norm_f32.o)
 .data          0x00000000        0x0 libs/libarm_cortexM4lf_math.a(arm_lms_norm_f32.o)
 .bss           0x00000000        0x0 libs/libarm_cortexM4lf_math.a(arm_lms_norm_f32.o)
 .text          0x00000000        0x0 libs/libarm_cortexM4lf_math.a(arm_iir_lattice_f32.o)
 .data          0x00000000        0x0 libs/libarm_cortexM4lf_math.a(arm_iir_lattice_f32.o)
 .bss           0x00000000        0x0 libs/libarm_cortexM4lf_math.a(arm_iir_lattice_f32.o)
 .text          0x00000000        0x0 libs/libarm_cortexM4lf_math.a(arm_fir_interpolate_f32.o)
 .data          0x00000000        0x0 libs/libarm_cortexM4lf_math.a(arm_fir_interpolate_f32.o)
 .bss           0x00000000        0x0 libs/libarm_cortexM4lf_math.a(arm_fir_interpolate_f32.o)
 .text          0x00000000        0x0 libs/libarm_cortexM4lf_math.a(arm_fir_init_f32.o)
 .data          0x00000000        0x0 libs/libarm_cortexM4lf_math.a(arm_fir_init_f32.o)
 .bss           0x00000000        0x0 libs/libarm_cortexM4lf_math.a(arm_fir_init_f32.o)
 .text          0x00000000        0x0 libs/libarm_cortexM4lf_math.a(arm_fir_f32.o)
 .data          0x00000000        0x0 libs/libarm_cortexM4lf_math.a(arm_fir_f32.o)
 .bss           0x00000000        0x0 libs/libarm_cortexM4lf_math.a(arm_fir_f32.o)
 .text          0x00000000        0x0 libs/libarm_cortexM4lf_math.a(arm_fir_decimate_f32.o)
 .data          0x00000000        0x0 libs/libarm_cortexM4lf_math.a(arm_fir_decimate_f32.o)
 .bss           0x00000000        0x0 libs/libarm_cortexM4lf_math.a(arm_fir_decimate_f32.o)
 .text          0x00000000        0x0 libs/libarm_cortexM4lf_math.a(arm_cmplx_mag_f32.o)
 .data          0x00000000        0x0 libs/libarm_cortexM4lf_math.a(arm_cmplx_mag_f32.o)
 .bss           0x00000000        0x0 libs/libarm_cortexM4lf_math.a(arm_cmplx_mag_f32.o)
 .text          0x00000000        0x0 libs/libarm_cortexM4lf_math.a(arm_sin_f32.o)
 .data          0x00000000        0x0 libs/libarm_cortexM4lf_math.a(arm_sin_f32.o)
 .bss           0x00000000        0x0 libs/libarm_cortexM4lf_math.a(arm_sin_f32.o)
 .text          0x00000000        0x0 libs/libarm_cortexM4lf_math.a(arm_cos_f32.o)
 .data          0x00000000        0x0 libs/libarm_cortexM4lf_math.a(arm_cos_f32.o)
 .bss           0x00000000        0x0 libs/libarm_cortexM4lf_math.a(arm_cos_f32.o)
 .text          0x00000000        0x0 libs/libarm_cortexM4lf_math.a(arm_sub_f32.o)
 .data          0x00000000        0x0 libs/libarm_cortexM4lf_math.a(arm_sub_f32.o)
 .bss           0x00000000        0x0 libs/libarm_cortexM4lf_math.a(arm_sub_f32.o)
 .text          0x00000000        0x0 libs/libarm_cortexM4lf_math.a(arm_scale_f32.o)
 .data          0x00000000        0x0 libs/libarm_cortexM4lf_math.a(arm_scale_f32.o)
 .bss           0x00000000        0x0 libs/libarm_cortexM4lf_math.a(arm_scale_f32.o)
 .text          0x00000000        0x0 libs/libarm_cortexM4lf_math.a(arm_offset_f32.o)
 .data          0x00000000        0x0 libs/libarm_cortexM4lf_math.a(arm_offset_f32.o)
 .bss           0x00000000        0x0 libs/libarm_cortexM4lf_math.a(arm_offset_f32.o)
 .text          0x00000000        0x0 libs/libarm_cortexM4lf_math.a(arm_negate_f32.o)
 .data          0x00000000        0x0 libs/libarm_cortexM4lf_math.a(arm_negate_f32.o)
 .bss           0x00000000        0x0 libs/libarm_cortexM4lf_math.a(arm_negate_f32.o)
 .text          0x00000000        0x0 libs/libarm_cortexM4lf_math.a(arm_mult_f32.o)
 .data          0x00000000        0x0 libs/libarm_cortexM4lf_math.a(arm_mult_f32.o)
 .bss           0x00000000        0x0 libs/libarm_cortexM4lf_math.a(arm_mult_f32.o)
 .text          0x00000000        0x0 libs/libarm_cortexM4lf_math.a(arm_add_f32.o)
 .data          0x00000000        0x0 libs/libarm_cortexM4lf_math.a(arm_add_f32.o)
 .bss           0x00000000        0x0 libs/libarm_cortexM4lf_math.a(arm_add_f32.o)
 .text          0x00000000        0x0 libs/libarm_cortexM4lf_math.a(arm_common_tables.o)
 .data          0x00000000        0x0 libs/libarm_cortexM4lf_math.a(arm_common_tables.o)
 .bss           0x00000000        0x0 libs/libarm_cortexM4lf_math.a(arm_common_tables.o)
 .text          0x00000000        0x0 libs/libm.a(lib_a-s_cos.o)
 .data          0x00000000        0x0 libs/libm.a(lib_a-s_cos.o)
 .bss           0x00000000        0x0 libs/libm.a(lib_a-s_cos.o)
 .text          0x00000000        0x0 libs/libm.a(lib_a-s_pow10.o)
 .data          0x00000000        0x0 libs/libm.a(lib_a-s_pow10.o)
 .bss           0x00000000        0x0 libs/libm.a(lib_a-s_pow10.o)
 .text          0x00000000        0x0 libs/libm.a(lib_a-s_sin.o)
 .data          0x00000000        0x0 libs/libm.a(lib_a-s_sin.o)
 .bss           0x00000000        0x0 libs/libm.a(lib_a-s_sin.o)
 .text          0x00000000        0x0 libs/libm.a(lib_a-sf_ceil.o)
 .data          0x00000000        0x0 libs/libm.a(lib_a-sf_ceil.o)
 .bss           0x00000000        0x0 libs/libm.a(lib_a-sf_ceil.o)
 .text          0x00000000        0x0 libs/libm.a(lib_a-sf_floor.o)
 .data          0x00000000        0x0 libs/libm.a(lib_a-sf_floor.o)
 .bss           0x00000000        0x0 libs/libm.a(lib_a-sf_floor.o)
 .text          0x00000000        0x0 libs/libm.a(lib_a-sf_round.o)
 .data          0x00000000        0x0 libs/libm.a(lib_a-sf_round.o)
 .bss           0x00000000        0x0 libs/libm.a(lib_a-sf_round.o)
 .text          0x00000000        0x0 libs/libm.a(lib_a-sf_trunc.o)
 .data          0x00000000        0x0 libs/libm.a(lib_a-sf_trunc.o)
 .bss           0x00000000        0x0 libs/libm.a(lib_a-sf_trunc.o)
 .text          0x00000000        0x0 libs/libm.a(lib_a-w_log10.o)
 .data          0x00000000        0x0 libs/libm.a(lib_a-w_log10.o)
 .bss           0x00000000        0x0 libs/libm.a(lib_a-w_log10.o)
 .text          0x00000000        0x0 libs/libm.a(lib_a-w_pow.o)
 .data          0x00000000        0x0 libs/libm.a(lib_a-w_pow.o)
 .bss           0x00000000        0x0 libs/libm.a(lib_a-w_pow.o)
 .text          0x00000000        0x0 libs/libm.a(lib_a-w_sqrt.o)
 .data          0x00000000        0x0 libs/libm.a(lib_a-w_sqrt.o)
 .bss           0x00000000        0x0 libs/libm.a(lib_a-w_sqrt.o)
 .text          0x00000000        0x0 libs/libm.a(lib_a-wf_log10.o)
 .data          0x00000000        0x0 libs/libm.a(lib_a-wf_log10.o)
 .bss           0x00000000        0x0 libs/libm.a(lib_a-wf_log10.o)
 .text          0x00000000        0x0 libs/libm.a(lib_a-wf_pow.o)
 .data          0x00000000        0x0 libs/libm.a(lib_a-wf_pow.o)
 .bss           0x00000000        0x0 libs/libm.a(lib_a-wf_pow.o)
 .text          0x00000000        0x0 libs/libm.a(lib_a-wf_sincos.o)
 .data          0x00000000        0x0 libs/libm.a(lib_a-wf_sincos.o)
 .bss           0x00000000        0x0 libs/libm.a(lib_a-wf_sincos.o)
 .text          0x00000000        0x0 libs/libm.a(lib_a-wf_sqrt.o)
 .data          0x00000000        0x0 libs/libm.a(lib_a-wf_sqrt.o)
 .bss           0x00000000        0x0 libs/libm.a(lib_a-wf_sqrt.o)
 .text          0x00000000        0x0 libs/libm.a(lib_a-e_log10.o)
 .data          0x00000000        0x0 libs/libm.a(lib_a-e_log10.o)
 .bss           0x00000000        0x0 libs/libm.a(lib_a-e_log10.o)
 .text          0x00000000        0x0 libs/libm.a(lib_a-e_pow.o)
 .data          0x00000000        0x0 libs/libm.a(lib_a-e_pow.o)
 .bss           0x00000000        0x0 libs/libm.a(lib_a-e_pow.o)
 .text          0x00000000        0x0 libs/libm.a(lib_a-e_rem_pio2.o)
 .data          0x00000000        0x0 libs/libm.a(lib_a-e_rem_pio2.o)
 .bss           0x00000000        0x0 libs/libm.a(lib_a-e_rem_pio2.o)
 .text          0x00000000        0x0 libs/libm.a(lib_a-e_sqrt.o)
 .data          0x00000000        0x0 libs/libm.a(lib_a-e_sqrt.o)
 .bss           0x00000000        0x0 libs/libm.a(lib_a-e_sqrt.o)
 .text          0x00000000        0x0 libs/libm.a(lib_a-ef_log10.o)
 .data          0x00000000        0x0 libs/libm.a(lib_a-ef_log10.o)
 .bss           0x00000000        0x0 libs/libm.a(lib_a-ef_log10.o)
 .text          0x00000000        0x0 libs/libm.a(lib_a-ef_pow.o)
 .data          0x00000000        0x0 libs/libm.a(lib_a-ef_pow.o)
 .bss           0x00000000        0x0 libs/libm.a(lib_a-ef_pow.o)
 .text          0x00000000        0x0 libs/libm.a(lib_a-ef_sqrt.o)
 .data          0x00000000        0x0 libs/libm.a(lib_a-ef_sqrt.o)
 .bss           0x00000000        0x0 libs/libm.a(lib_a-ef_sqrt.o)
 .text          0x00000000        0x0 libs/libm.a(lib_a-k_cos.o)
 .data          0x00000000        0x0 libs/libm.a(lib_a-k_cos.o)
 .bss           0x00000000        0x0 libs/libm.a(lib_a-k_cos.o)
 .text          0x00000000        0x0 libs/libm.a(lib_a-k_rem_pio2.o)
 .data          0x00000000        0x0 libs/libm.a(lib_a-k_rem_pio2.o)
 .bss           0x00000000        0x0 libs/libm.a(lib_a-k_rem_pio2.o)
 .text          0x00000000        0x0 libs/libm.a(lib_a-k_sin.o)
 .data          0x00000000        0x0 libs/libm.a(lib_a-k_sin.o)
 .bss           0x00000000        0x0 libs/libm.a(lib_a-k_sin.o)
 .text          0x00000000        0x0 libs/libm.a(lib_a-s_fabs.o)
 .data          0x00000000        0x0 libs/libm.a(lib_a-s_fabs.o)
 .bss           0x00000000        0x0 libs/libm.a(lib_a-s_fabs.o)
 .text          0x00000000        0x0 libs/libm.a(lib_a-s_finite.o)
 .data          0x00000000        0x0 libs/libm.a(lib_a-s_finite.o)
 .bss           0x00000000        0x0 libs/libm.a(lib_a-s_finite.o)
 .text          0x00000000        0x0 libs/libm.a(lib_a-s_floor.o)
 .data          0x00000000        0x0 libs/libm.a(lib_a-s_floor.o)
 .bss           0x00000000        0x0 libs/libm.a(lib_a-s_floor.o)
 .text          0x00000000        0x0 libs/libm.a(lib_a-s_fpclassify.o)
 .data          0x00000000        0x0 libs/libm.a(lib_a-s_fpclassify.o)
 .bss           0x00000000        0x0 libs/libm.a(lib_a-s_fpclassify.o)
 .text          0x00000000        0x0 libs/libm.a(lib_a-s_lib_ver.o)
 .data          0x00000000        0x0 libs/libm.a(lib_a-s_lib_ver.o)
 .bss           0x00000000        0x0 libs/libm.a(lib_a-s_lib_ver.o)
 .text          0x00000000        0x0 libs/libm.a(lib_a-s_matherr.o)
 .data          0x00000000        0x0 libs/libm.a(lib_a-s_matherr.o)
 .bss           0x00000000        0x0 libs/libm.a(lib_a-s_matherr.o)
 .text          0x00000000        0x0 libs/libm.a(lib_a-s_nan.o)
 .data          0x00000000        0x0 libs/libm.a(lib_a-s_nan.o)
 .bss           0x00000000        0x0 libs/libm.a(lib_a-s_nan.o)
 .text          0x00000000        0x0 libs/libm.a(lib_a-s_rint.o)
 .data          0x00000000        0x0 libs/libm.a(lib_a-s_rint.o)
 .bss           0x00000000        0x0 libs/libm.a(lib_a-s_rint.o)
 .text          0x00000000        0x0 libs/libm.a(lib_a-s_scalbn.o)
 .data          0x00000000        0x0 libs/libm.a(lib_a-s_scalbn.o)
 .bss           0x00000000        0x0 libs/libm.a(lib_a-s_scalbn.o)
 .text          0x00000000        0x0 libs/libm.a(lib_a-sf_cos.o)
 .data          0x00000000        0x0 libs/libm.a(lib_a-sf_cos.o)
 .bss           0x00000000        0x0 libs/libm.a(lib_a-sf_cos.o)
 .text          0x00000000        0x0 libs/libm.a(lib_a-sf_fabs.o)
 .data          0x00000000        0x0 libs/libm.a(lib_a-sf_fabs.o)
 .bss           0x00000000        0x0 libs/libm.a(lib_a-sf_fabs.o)
 .text          0x00000000        0x0 libs/libm.a(lib_a-sf_finite.o)
 .data          0x00000000        0x0 libs/libm.a(lib_a-sf_finite.o)
 .bss           0x00000000        0x0 libs/libm.a(lib_a-sf_finite.o)
 .text          0x00000000        0x0 libs/libm.a(lib_a-sf_fpclassify.o)
 .data          0x00000000        0x0 libs/libm.a(lib_a-sf_fpclassify.o)
 .bss           0x00000000        0x0 libs/libm.a(lib_a-sf_fpclassify.o)
 .text          0x00000000        0x0 libs/libm.a(lib_a-sf_nan.o)
 .data          0x00000000        0x0 libs/libm.a(lib_a-sf_nan.o)
 .bss           0x00000000        0x0 libs/libm.a(lib_a-sf_nan.o)
 .text          0x00000000        0x0 libs/libm.a(lib_a-sf_scalbn.o)
 .data          0x00000000        0x0 libs/libm.a(lib_a-sf_scalbn.o)
 .bss           0x00000000        0x0 libs/libm.a(lib_a-sf_scalbn.o)
 .text          0x00000000        0x0 libs/libm.a(lib_a-sf_sin.o)
 .data          0x00000000        0x0 libs/libm.a(lib_a-sf_sin.o)
 .bss           0x00000000        0x0 libs/libm.a(lib_a-sf_sin.o)
 .text          0x00000000        0x0 libs/libm.a(lib_a-e_log.o)
 .data          0x00000000        0x0 libs/libm.a(lib_a-e_log.o)
 .bss           0x00000000        0x0 libs/libm.a(lib_a-e_log.o)
 .text          0x00000000        0x0 libs/libm.a(lib_a-ef_log.o)
 .data          0x00000000        0x0 libs/libm.a(lib_a-ef_log.o)
 .bss           0x00000000        0x0 libs/libm.a(lib_a-ef_log.o)
 .text          0x00000000        0x0 libs/libm.a(lib_a-ef_rem_pio2.o)
 .data          0x00000000        0x0 libs/libm.a(lib_a-ef_rem_pio2.o)
 .bss           0x00000000        0x0 libs/libm.a(lib_a-ef_rem_pio2.o)
 .text          0x00000000        0x0 libs/libm.a(lib_a-kf_cos.o)
 .data          0x00000000        0x0 libs/libm.a(lib_a-kf_cos.o)
 .bss           0x00000000        0x0 libs/libm.a(lib_a-kf_cos.o)
 .text          0x00000000        0x0 libs/libm.a(lib_a-kf_rem_pio2.o)
 .data          0x00000000        0x0 libs/libm.a(lib_a-kf_rem_pio2.o)
 .bss           0x00000000        0x0 libs/libm.a(lib_a-kf_rem_pio2.o)
 .text          0x00000000        0x0 libs/libm.a(lib_a-kf_sin.o)
 .data          0x00000000        0x0 libs/libm.a(lib_a-kf_sin.o)
 .bss           0x00000000        0x0 libs/libm.a(lib_a-kf_sin.o)
 .text          0x00000000        0x0 libs/libm.a(lib_a-s_copysign.o)
 .data          0x00000000        0x0 libs/libm.a(lib_a-s_copysign.o)
 .bss           0x00000000        0x0 libs/libm.a(lib_a-s_copysign.o)
 .text          0x00000000        0x0 libs/libm.a(lib_a-sf_copysign.o)
 .data          0x00000000        0x0 libs/libm.a(lib_a-sf_copysign.o)
 .bss           0x00000000        0x0 libs/libm.a(lib_a-sf_copysign.o)
 .text          0x00000000        0x0 /usr/lib/gcc/arm-none-eabi/4.8/../../../arm-none-eabi/lib/armv7e-m/fpu/libg.a(lib_a-atexit.o)
 .data          0x00000000        0x0 /usr/lib/gcc/arm-none-eabi/4.8/../../../arm-none-eabi/lib/armv7e-m/fpu/libg.a(lib_a-atexit.o)
 .bss           0x00000000        0x0 /usr/lib/gcc/arm-none-eabi/4.8/../../../arm-none-eabi/lib/armv7e-m/fpu/libg.a(lib_a-atexit.o)
 .text          0x00000000        0x0 /usr/lib/gcc/arm-none-eabi/4.8/../../../arm-none-eabi/lib/armv7e-m/fpu/libg.a(lib_a-errno.o)
 .data          0x00000000        0x0 /usr/lib/gcc/arm-none-eabi/4.8/../../../arm-none-eabi/lib/armv7e-m/fpu/libg.a(lib_a-errno.o)
 .bss           0x00000000        0x0 /usr/lib/gcc/arm-none-eabi/4.8/../../../arm-none-eabi/lib/armv7e-m/fpu/libg.a(lib_a-errno.o)
 .text          0x00000000        0x0 /usr/lib/gcc/arm-none-eabi/4.8/../../../arm-none-eabi/lib/armv7e-m/fpu/libg.a(lib_a-exit.o)
 .data          0x00000000        0x0 /usr/lib/gcc/arm-none-eabi/4.8/../../../arm-none-eabi/lib/armv7e-m/fpu/libg.a(lib_a-exit.o)
 .bss           0x00000000        0x0 /usr/lib/gcc/arm-none-eabi/4.8/../../../arm-none-eabi/lib/armv7e-m/fpu/libg.a(lib_a-exit.o)
 .text.exit     0x00000000       0x20 /usr/lib/gcc/arm-none-eabi/4.8/../../../arm-none-eabi/lib/armv7e-m/fpu/libg.a(lib_a-exit.o)
 .debug_info    0x00000000      0x8e4 /usr/lib/gcc/arm-none-eabi/4.8/../../../arm-none-eabi/lib/armv7e-m/fpu/libg.a(lib_a-exit.o)
 .debug_abbrev  0x00000000      0x1e6 /usr/lib/gcc/arm-none-eabi/4.8/../../../arm-none-eabi/lib/armv7e-m/fpu/libg.a(lib_a-exit.o)
 .debug_loc     0x00000000       0x1e /usr/lib/gcc/arm-none-eabi/4.8/../../../arm-none-eabi/lib/armv7e-m/fpu/libg.a(lib_a-exit.o)
 .debug_aranges
                0x00000000       0x20 /usr/lib/gcc/arm-none-eabi/4.8/../../../arm-none-eabi/lib/armv7e-m/fpu/libg.a(lib_a-exit.o)
 .debug_ranges  0x00000000       0x10 /usr/lib/gcc/arm-none-eabi/4.8/../../../arm-none-eabi/lib/armv7e-m/fpu/libg.a(lib_a-exit.o)
 .debug_line    0x00000000      0x182 /usr/lib/gcc/arm-none-eabi/4.8/../../../arm-none-eabi/lib/armv7e-m/fpu/libg.a(lib_a-exit.o)
 .debug_str     0x00000000      0x5e8 /usr/lib/gcc/arm-none-eabi/4.8/../../../arm-none-eabi/lib/armv7e-m/fpu/libg.a(lib_a-exit.o)
 .comment       0x00000000       0x2c /usr/lib/gcc/arm-none-eabi/4.8/../../../arm-none-eabi/lib/armv7e-m/fpu/libg.a(lib_a-exit.o)
 .ARM.attributes
                0x00000000       0x34 /usr/lib/gcc/arm-none-eabi/4.8/../../../arm-none-eabi/lib/armv7e-m/fpu/libg.a(lib_a-exit.o)
 .debug_frame   0x00000000       0x28 /usr/lib/gcc/arm-none-eabi/4.8/../../../arm-none-eabi/lib/armv7e-m/fpu/libg.a(lib_a-exit.o)
 .text          0x00000000        0x0 /usr/lib/gcc/arm-none-eabi/4.8/../../../arm-none-eabi/lib/armv7e-m/fpu/libg.a(lib_a-fini.o)
 .data          0x00000000        0x0 /usr/lib/gcc/arm-none-eabi/4.8/../../../arm-none-eabi/lib/armv7e-m/fpu/libg.a(lib_a-fini.o)
 .bss           0x00000000        0x0 /usr/lib/gcc/arm-none-eabi/4.8/../../../arm-none-eabi/lib/armv7e-m/fpu/libg.a(lib_a-fini.o)
 .text          0x00000000        0x0 /usr/lib/gcc/arm-none-eabi/4.8/../../../arm-none-eabi/lib/armv7e-m/fpu/libg.a(lib_a-impure.o)
 .data          0x00000000        0x0 /usr/lib/gcc/arm-none-eabi/4.8/../../../arm-none-eabi/lib/armv7e-m/fpu/libg.a(lib_a-impure.o)
 .bss           0x00000000        0x0 /usr/lib/gcc/arm-none-eabi/4.8/../../../arm-none-eabi/lib/armv7e-m/fpu/libg.a(lib_a-impure.o)
 .text          0x00000000        0x0 /usr/lib/gcc/arm-none-eabi/4.8/../../../arm-none-eabi/lib/armv7e-m/fpu/libg.a(lib_a-init.o)
 .data          0x00000000        0x0 /usr/lib/gcc/arm-none-eabi/4.8/../../../arm-none-eabi/lib/armv7e-m/fpu/libg.a(lib_a-init.o)
 .bss           0x00000000        0x0 /usr/lib/gcc/arm-none-eabi/4.8/../../../arm-none-eabi/lib/armv7e-m/fpu/libg.a(lib_a-init.o)
 .text.__libc_init_array
                0x00000000       0x50 /usr/lib/gcc/arm-none-eabi/4.8/../../../arm-none-eabi/lib/armv7e-m/fpu/libg.a(lib_a-init.o)
 .debug_info    0x00000000      0x105 /usr/lib/gcc/arm-none-eabi/4.8/../../../arm-none-eabi/lib/armv7e-m/fpu/libg.a(lib_a-init.o)
 .debug_abbrev  0x00000000       0xba /usr/lib/gcc/arm-none-eabi/4.8/../../../arm-none-eabi/lib/armv7e-m/fpu/libg.a(lib_a-init.o)
 .debug_loc     0x00000000       0xae /usr/lib/gcc/arm-none-eabi/4.8/../../../arm-none-eabi/lib/armv7e-m/fpu/libg.a(lib_a-init.o)
 .debug_aranges
                0x00000000       0x20 /usr/lib/gcc/arm-none-eabi/4.8/../../../arm-none-eabi/lib/armv7e-m/fpu/libg.a(lib_a-init.o)
 .debug_ranges  0x00000000       0x10 /usr/lib/gcc/arm-none-eabi/4.8/../../../arm-none-eabi/lib/armv7e-m/fpu/libg.a(lib_a-init.o)
 .debug_line    0x00000000       0xb6 /usr/lib/gcc/arm-none-eabi/4.8/../../../arm-none-eabi/lib/armv7e-m/fpu/libg.a(lib_a-init.o)
 .debug_str     0x00000000      0x26d /usr/lib/gcc/arm-none-eabi/4.8/../../../arm-none-eabi/lib/armv7e-m/fpu/libg.a(lib_a-init.o)
 .comment       0x00000000       0x2c /usr/lib/gcc/arm-none-eabi/4.8/../../../arm-none-eabi/lib/armv7e-m/fpu/libg.a(lib_a-init.o)
 .ARM.attributes
                0x00000000       0x34 /usr/lib/gcc/arm-none-eabi/4.8/../../../arm-none-eabi/lib/armv7e-m/fpu/libg.a(lib_a-init.o)
 .debug_frame   0x00000000       0x2c /usr/lib/gcc/arm-none-eabi/4.8/../../../arm-none-eabi/lib/armv7e-m/fpu/libg.a(lib_a-init.o)
 .text          0x00000000        0x0 /usr/lib/gcc/arm-none-eabi/4.8/../../../arm-none-eabi/lib/armv7e-m/fpu/libg.a(lib_a-memcmp.o)
 .data          0x00000000        0x0 /usr/lib/gcc/arm-none-eabi/4.8/../../../arm-none-eabi/lib/armv7e-m/fpu/libg.a(lib_a-memcmp.o)
 .bss           0x00000000        0x0 /usr/lib/gcc/arm-none-eabi/4.8/../../../arm-none-eabi/lib/armv7e-m/fpu/libg.a(lib_a-memcmp.o)
 .text          0x00000000        0x0 /usr/lib/gcc/arm-none-eabi/4.8/../../../arm-none-eabi/lib/armv7e-m/fpu/libg.a(lib_a-memset.o)
 .data          0x00000000        0x0 /usr/lib/gcc/arm-none-eabi/4.8/../../../arm-none-eabi/lib/armv7e-m/fpu/libg.a(lib_a-memset.o)
 .bss           0x00000000        0x0 /usr/lib/gcc/arm-none-eabi/4.8/../../../arm-none-eabi/lib/armv7e-m/fpu/libg.a(lib_a-memset.o)
 .text          0x00000000        0x0 /usr/lib/gcc/arm-none-eabi/4.8/../../../arm-none-eabi/lib/armv7e-m/fpu/libg.a(lib_a-strlen.o)
 .data          0x00000000        0x0 /usr/lib/gcc/arm-none-eabi/4.8/../../../arm-none-eabi/lib/armv7e-m/fpu/libg.a(lib_a-strlen.o)
 .bss           0x00000000        0x0 /usr/lib/gcc/arm-none-eabi/4.8/../../../arm-none-eabi/lib/armv7e-m/fpu/libg.a(lib_a-strlen.o)
 .text          0x00000000        0x0 /usr/lib/gcc/arm-none-eabi/4.8/../../../arm-none-eabi/lib/armv7e-m/fpu/libg.a(lib_a-__atexit.o)
 .data          0x00000000        0x0 /usr/lib/gcc/arm-none-eabi/4.8/../../../arm-none-eabi/lib/armv7e-m/fpu/libg.a(lib_a-__atexit.o)
 .bss           0x00000000        0x0 /usr/lib/gcc/arm-none-eabi/4.8/../../../arm-none-eabi/lib/armv7e-m/fpu/libg.a(lib_a-__atexit.o)
 .text          0x00000000        0x0 /usr/lib/gcc/arm-none-eabi/4.8/../../../arm-none-eabi/lib/armv7e-m/fpu/libg.a(lib_a-__call_atexit.o)
 .data          0x00000000        0x0 /usr/lib/gcc/arm-none-eabi/4.8/../../../arm-none-eabi/lib/armv7e-m/fpu/libg.a(lib_a-__call_atexit.o)
 .bss           0x00000000        0x0 /usr/lib/gcc/arm-none-eabi/4.8/../../../arm-none-eabi/lib/armv7e-m/fpu/libg.a(lib_a-__call_atexit.o)
 .text.__call_exitprocs
                0x00000000       0xf0 /usr/lib/gcc/arm-none-eabi/4.8/../../../arm-none-eabi/lib/armv7e-m/fpu/libg.a(lib_a-__call_atexit.o)
 .data          0x00000000        0x0 /usr/lib/gcc/arm-none-eabi/4.8/armv7e-m/fpu/libgcc.a(_arm_addsubdf3.o)
 .bss           0x00000000        0x0 /usr/lib/gcc/arm-none-eabi/4.8/armv7e-m/fpu/libgcc.a(_arm_addsubdf3.o)
 .data          0x00000000        0x0 /usr/lib/gcc/arm-none-eabi/4.8/armv7e-m/fpu/libgcc.a(_arm_muldivdf3.o)
 .bss           0x00000000        0x0 /usr/lib/gcc/arm-none-eabi/4.8/armv7e-m/fpu/libgcc.a(_arm_muldivdf3.o)
 .data          0x00000000        0x0 /usr/lib/gcc/arm-none-eabi/4.8/armv7e-m/fpu/libgcc.a(_arm_cmpdf2.o)
 .bss           0x00000000        0x0 /usr/lib/gcc/arm-none-eabi/4.8/armv7e-m/fpu/libgcc.a(_arm_cmpdf2.o)
 .data          0x00000000        0x0 /usr/lib/gcc/arm-none-eabi/4.8/armv7e-m/fpu/libgcc.a(_arm_fixdfsi.o)
 .bss           0x00000000        0x0 /usr/lib/gcc/arm-none-eabi/4.8/armv7e-m/fpu/libgcc.a(_arm_fixdfsi.o)
 .data          0x00000000        0x0 /usr/lib/gcc/arm-none-eabi/4.8/armv7e-m/fpu/libgcc.a(_arm_truncdfsf2.o)
 .bss           0x00000000        0x0 /usr/lib/gcc/arm-none-eabi/4.8/armv7e-m/fpu/libgcc.a(_arm_truncdfsf2.o)
 .text          0x00000000        0x0 /usr/lib/gcc/arm-none-eabi/4.8/armv7e-m/fpu/crtend.o
 .data          0x00000000        0x0 /usr/lib/gcc/arm-none-eabi/4.8/armv7e-m/fpu/crtend.o
 .bss           0x00000000        0x0 /usr/lib/gcc/arm-none-eabi/4.8/armv7e-m/fpu/crtend.o
 .eh_frame      0x00000000        0x4 /usr/lib/gcc/arm-none-eabi/4.8/armv7e-m/fpu/crtend.o
 .text          0x00000000        0x0 /usr/lib/gcc/arm-none-eabi/4.8/armv7e-m/fpu/crtn.o
 .data          0x00000000        0x0 /usr/lib/gcc/arm-none-eabi/4.8/armv7e-m/fpu/crtn.o
 .bss           0x00000000        0x0 /usr/lib/gcc/arm-none-eabi/4.8/armv7e-m/fpu/crtn.o

Memory Configuration

Name             Origin             Length             Attributes
rom              0x08010000         0x00070000         xr
ram              0x20000000         0x00020000         xrw
ram1             0x10000000         0x00010000         xrw
*default*        0x00000000         0xffffffff

Linker script and memory map

LOAD /usr/lib/gcc/arm-none-eabi/4.8/armv7e-m/fpu/crti.o
LOAD /usr/lib/gcc/arm-none-eabi/4.8/armv7e-m/fpu/crtbegin.o
LOAD /usr/lib/gcc/arm-none-eabi/4.8/../../../arm-none-eabi/lib/armv7e-m/fpu/crt0.o
LOAD main.o
LOAD usb/usbh/core/src/usbh_hcs.o
LOAD usb/usbh/core/src/usbh_core.o
LOAD usb/usbh/core/src/usbh_ioreq.o
LOAD usb/usbh/core/src/usbh_stdreq.o
LOAD usb/usbh/class/HID/src/usbh_hid_keybd.o
LOAD usb/usbh/class/HID/src/usbh_hid_core.o
LOAD usb/usbh/class/HID/src/usbh_hid_mouse.o
LOAD usb/otg/src/usb_core.o
LOAD usb/otg/src/usb_hcd_int.o
LOAD usb/otg/src/usb_dcd.o
LOAD usb/otg/src/usb_dcd_int.o
LOAD usb/otg/src/usb_otg.o
LOAD usb/otg/src/usb_hcd.o
LOAD usb/usbd/core/src/usbd_core.o
LOAD usb/usbd/core/src/usbd_ioreq.o
LOAD usb/usbd/core/src/usbd_req.o
LOAD usb/usbd/class/audio/src/usbd_audio_core.o
LOAD usb/usbd/class/audio/src/usbd_audio_out_if.o
LOAD usb/usbd/class/cdc/src/usbd_cdc_core.o
LOAD cmsis_lib/source/stm32f4xx_usart.o
LOAD cmsis_lib/source/misc.o
LOAD cmsis_lib/source/stm32f4xx_pwr.o
LOAD cmsis_lib/source/stm32f4xx_syscfg.o
LOAD cmsis_lib/source/stm32f4xx_gpio.o
LOAD cmsis_lib/source/stm32f4xx_wwdg.o
LOAD cmsis_lib/source/stm32f4xx_adc.o
LOAD cmsis_lib/source/stm32f4xx_exti.o
LOAD cmsis_lib/source/stm32f4xx_i2c.o
LOAD cmsis_lib/source/stm32f4xx_dac.o
LOAD cmsis_lib/source/stm32f4xx_fsmc.o
LOAD cmsis_lib/source/stm32f4xx_flash.o
LOAD cmsis_lib/source/stm32f4xx_spi.o
LOAD cmsis_lib/source/stm32f4xx_dma.o
LOAD cmsis_lib/source/stm32f4xx_rtc.o
LOAD cmsis_lib/source/stm32f4xx_tim.o
LOAD cmsis_lib/source/stm32f4xx_rcc.o
LOAD drivers/cat/cat_driver.o
LOAD drivers/cat/usb/usbd_usr.o
LOAD drivers/cat/usb/usbd_bsp.o
LOAD drivers/cat/usb/usbd_desc.o
LOAD drivers/cat/usb/usbd_cdc_vcp.o
LOAD drivers/audio/cw/cw_gen.o
LOAD drivers/audio/audio_driver.o
LOAD drivers/audio/codec/codec.o
LOAD drivers/audio/codec/i2s.o
LOAD drivers/audio/softdds/softdds.o
LOAD drivers/keyboard/usb/usbh_bsp.o
LOAD drivers/keyboard/usb/usbh_usr.o
LOAD drivers/keyboard/keyb_driver.o
LOAD drivers/ui/oscillator/ui_si570.o
LOAD drivers/ui/ui_menu.o
LOAD drivers/ui/ui_driver.o
LOAD drivers/ui/encoder/ui_rotary.o
LOAD drivers/ui/lcd/ui_lcd_hy28.o
LOAD drivers/ui/lcd/ui_lcd_hy28_fonts.o
LOAD hardware/mchf_hw_i2c2.o
LOAD hardware/mchf_hw_i2c.o
LOAD hardware/mchf_board.o
LOAD cmsis_boot/system_stm32f4xx.o
LOAD cmsis_boot/startup/startup_stm32f4xx.o
LOAD syscalls/syscalls.o
LOAD misc/v_eprom/eeprom.o
LOAD stdio/printf.o
LOAD libs/libarm_cortexM4lf_math.a
LOAD libs/libm.a
LOAD /usr/lib/gcc/arm-none-eabi/4.8/../../../arm-none-eabi/lib/armv7e-m/fpu/libg.a
LOAD /usr/lib/gcc/arm-none-eabi/4.8/../../../arm-none-eabi/lib/armv7e-m/fpu/libc.a
LOAD /usr/lib/gcc/arm-none-eabi/4.8/armv7e-m/fpu/libgcc.a
START GROUP
LOAD /usr/lib/gcc/arm-none-eabi/4.8/armv7e-m/fpu/libgcc.a
LOAD /usr/lib/gcc/arm-none-eabi/4.8/../../../arm-none-eabi/lib/armv7e-m/fpu/libc.a
END GROUP
LOAD /usr/lib/gcc/arm-none-eabi/4.8/armv7e-m/fpu/crtend.o
LOAD /usr/lib/gcc/arm-none-eabi/4.8/armv7e-m/fpu/crtn.o
                0x20020000                _eram = 0x20020000

.text           0x08010000    0x48e20
 *(.isr_vector)
 .isr_vector    0x08010000      0x188 cmsis_boot/startup/startup_stm32f4xx.o
                0x08010000                g_pfnVectors
 *(.text*)
 .text          0x08010188       0xac /usr/lib/gcc/arm-none-eabi/4.8/armv7e-m/fpu/crtbegin.o
 .text.NVIC_SystemReset
                0x08010234       0x28 main.o
 .text.CriticalError
                0x0801025c       0x14 main.o
                0x0801025c                CriticalError
 .text.NMI_Handler
                0x08010270       0x18 main.o
                0x08010270                NMI_Handler
 .text.HardFault_Handler
                0x08010288       0x18 main.o
                0x08010288                HardFault_Handler
 .text.MemManage_Handler
                0x080102a0       0x18 main.o
                0x080102a0                MemManage_Handler
 .text.BusFault_Handler
                0x080102b8       0x18 main.o
                0x080102b8                BusFault_Handler
 .text.UsageFault_Handler
                0x080102d0       0x18 main.o
                0x080102d0                UsageFault_Handler
 .text.SVC_Handler
                0x080102e8       0x18 main.o
                0x080102e8                SVC_Handler
 .text.DebugMon_Handler
                0x08010300       0x18 main.o
                0x08010300                DebugMon_Handler
 .text.SysTick_Handler
                0x08010318        0xc main.o
                0x08010318                SysTick_Handler
 .text.EXTI0_IRQHandler
                0x08010324       0x88 main.o
                0x08010324                EXTI0_IRQHandler
 .text.EXTI1_IRQHandler
                0x080103ac       0x40 main.o
                0x080103ac                EXTI1_IRQHandler
 .text.EXTI15_10_IRQHandler
                0x080103ec       0x18 main.o
                0x080103ec                EXTI15_10_IRQHandler
 .text.TransceiverStateInit
                0x08010404      0x534 main.o
                0x08010404                TransceiverStateInit
 .text.MiscInit
                0x08010938       0x20 main.o
                0x08010938                MiscInit
 .text.main     0x08010958      0x26c main.o
                0x08010958                main
 .text.USB_OTG_EnableCommonInt
                0x08010bc4       0x44 usb/otg/src/usb_core.o
 .text.USB_OTG_CoreReset
                0x08010c08       0x8c usb/otg/src/usb_core.o
 .text.USB_OTG_WritePacket
                0x08010c94       0x70 usb/otg/src/usb_core.o
                0x08010c94                USB_OTG_WritePacket
 .text.USB_OTG_ReadPacket
                0x08010d04       0x58 usb/otg/src/usb_core.o
                0x08010d04                USB_OTG_ReadPacket
 .text.USB_OTG_SelectCore
                0x08010d5c      0x174 usb/otg/src/usb_core.o
                0x08010d5c                USB_OTG_SelectCore
 .text.USB_OTG_CoreInit
                0x08010ed0      0x13c usb/otg/src/usb_core.o
                0x08010ed0                USB_OTG_CoreInit
 .text.USB_OTG_EnableGlobalInt
                0x0801100c       0x38 usb/otg/src/usb_core.o
                0x0801100c                USB_OTG_EnableGlobalInt
 .text.USB_OTG_DisableGlobalInt
                0x08011044       0x38 usb/otg/src/usb_core.o
                0x08011044                USB_OTG_DisableGlobalInt
 .text.USB_OTG_FlushTxFifo
                0x0801107c       0x74 usb/otg/src/usb_core.o
                0x0801107c                USB_OTG_FlushTxFifo
 .text.USB_OTG_FlushRxFifo
                0x080110f0       0x60 usb/otg/src/usb_core.o
                0x080110f0                USB_OTG_FlushRxFifo
 .text.USB_OTG_SetCurrentMode
                0x08011150       0x60 usb/otg/src/usb_core.o
                0x08011150                USB_OTG_SetCurrentMode
 .text.USB_OTG_GetMode
                0x080111b0       0x20 usb/otg/src/usb_core.o
                0x080111b0                USB_OTG_GetMode
 .text.USB_OTG_IsDeviceMode
                0x080111d0       0x24 usb/otg/src/usb_core.o
                0x080111d0                USB_OTG_IsDeviceMode
 .text.USB_OTG_ReadCoreItr
                0x080111f4       0x30 usb/otg/src/usb_core.o
                0x080111f4                USB_OTG_ReadCoreItr
 .text.USB_OTG_CoreInitDev
                0x08011224      0x1f4 usb/otg/src/usb_core.o
                0x08011224                USB_OTG_CoreInitDev
 .text.USB_OTG_EnableDevInt
                0x08011418       0x98 usb/otg/src/usb_core.o
                0x08011418                USB_OTG_EnableDevInt
 .text.USB_OTG_GetDeviceSpeed
                0x080114b0       0x48 usb/otg/src/usb_core.o
                0x080114b0                USB_OTG_GetDeviceSpeed
 .text.USB_OTG_EP0Activate
                0x080114f8       0x78 usb/otg/src/usb_core.o
                0x080114f8                USB_OTG_EP0Activate
 .text.USB_OTG_EPActivate
                0x08011570       0xdc usb/otg/src/usb_core.o
                0x08011570                USB_OTG_EPActivate
 .text.USB_OTG_EPDeactivate
                0x0801164c       0x8c usb/otg/src/usb_core.o
                0x0801164c                USB_OTG_EPDeactivate
 .text.USB_OTG_EPStartXfer
                0x080116d8      0x280 usb/otg/src/usb_core.o
                0x080116d8                USB_OTG_EPStartXfer
 .text.USB_OTG_EP0StartXfer
                0x08011958      0x1d4 usb/otg/src/usb_core.o
                0x08011958                USB_OTG_EP0StartXfer
 .text.USB_OTG_EPSetStall
                0x08011b2c       0x88 usb/otg/src/usb_core.o
                0x08011b2c                USB_OTG_EPSetStall
 .text.USB_OTG_EPClearStall
                0x08011bb4       0x78 usb/otg/src/usb_core.o
                0x08011bb4                USB_OTG_EPClearStall
 .text.USB_OTG_ReadDevAllOutEp_itr
                0x08011c2c       0x2c usb/otg/src/usb_core.o
                0x08011c2c                USB_OTG_ReadDevAllOutEp_itr
 .text.USB_OTG_ReadDevOutEP_itr
                0x08011c58       0x38 usb/otg/src/usb_core.o
                0x08011c58                USB_OTG_ReadDevOutEP_itr
 .text.USB_OTG_ReadDevAllInEPItr
                0x08011c90       0x2c usb/otg/src/usb_core.o
                0x08011c90                USB_OTG_ReadDevAllInEPItr
 .text.USB_OTG_EP0_OutStart
                0x08011cbc       0x70 usb/otg/src/usb_core.o
                0x08011cbc                USB_OTG_EP0_OutStart
 .text.DCD_Init
                0x08011d2c      0x104 usb/otg/src/usb_dcd.o
                0x08011d2c                DCD_Init
 .text.DCD_DeInit
                0x08011e30       0x14 usb/otg/src/usb_dcd.o
                0x08011e30                DCD_DeInit
 .text.DCD_EP_Open
                0x08011e44       0xa0 usb/otg/src/usb_dcd.o
                0x08011e44                DCD_EP_Open
 .text.DCD_EP_Close
                0x08011ee4       0x74 usb/otg/src/usb_dcd.o
                0x08011ee4                DCD_EP_Close
 .text.DCD_EP_PrepareRx
                0x08011f58       0x80 usb/otg/src/usb_dcd.o
                0x08011f58                DCD_EP_PrepareRx
 .text.DCD_EP_Tx
                0x08011fd8       0x78 usb/otg/src/usb_dcd.o
                0x08011fd8                DCD_EP_Tx
 .text.DCD_EP_Stall
                0x08012050       0x78 usb/otg/src/usb_dcd.o
                0x08012050                DCD_EP_Stall
 .text.DCD_EP_ClrStall
                0x080120c8       0x78 usb/otg/src/usb_dcd.o
                0x080120c8                DCD_EP_ClrStall
 .text.DCD_EP_SetAddress
                0x08012140       0x3c usb/otg/src/usb_dcd.o
                0x08012140                DCD_EP_SetAddress
 .text.USBD_OTG_ISR_Handler
                0x0801217c      0x15c usb/otg/src/usb_dcd_int.o
                0x0801217c                USBD_OTG_ISR_Handler
 .text.DCD_HandleResume_ISR
                0x080122d8       0x80 usb/otg/src/usb_dcd_int.o
 .text.DCD_HandleUSBSuspend_ISR
                0x08012358       0xbc usb/otg/src/usb_dcd_int.o
 .text.DCD_HandleInEP_ISR
                0x08012414      0x19c usb/otg/src/usb_dcd_int.o
 .text.DCD_HandleOutEP_ISR
                0x080125b0      0x150 usb/otg/src/usb_dcd_int.o
 .text.DCD_HandleSof_ISR
                0x08012700       0x34 usb/otg/src/usb_dcd_int.o
 .text.DCD_HandleRxStatusQueueLevel_ISR
                0x08012734      0x104 usb/otg/src/usb_dcd_int.o
 .text.DCD_WriteEmptyTxFifo
                0x08012838       0xe4 usb/otg/src/usb_dcd_int.o
 .text.DCD_HandleUsbReset_ISR
                0x0801291c      0x12c usb/otg/src/usb_dcd_int.o
 .text.DCD_HandleEnumDone_ISR
                0x08012a48       0x78 usb/otg/src/usb_dcd_int.o
 .text.DCD_IsoINIncomplete_ISR
                0x08012ac0       0x34 usb/otg/src/usb_dcd_int.o
 .text.DCD_IsoOUTIncomplete_ISR
                0x08012af4       0x34 usb/otg/src/usb_dcd_int.o
 .text.DCD_ReadDevInEP
                0x08012b28       0x50 usb/otg/src/usb_dcd_int.o
 .text.USBD_Init
                0x08012b78       0x44 usb/usbd/core/src/usbd_core.o
                0x08012b78                USBD_Init
 .text.USBD_DeInit
                0x08012bbc       0x20 usb/usbd/core/src/usbd_core.o
                0x08012bbc                USBD_DeInit
 .text.USBD_SetupStage
                0x08012bdc       0x6c usb/usbd/core/src/usbd_core.o
 .text.USBD_DataOutStage
                0x08012c48       0xd0 usb/usbd/core/src/usbd_core.o
 .text.USBD_DataInStage
                0x08012d18      0x11c usb/usbd/core/src/usbd_core.o
 .text.USBD_RunTestMode
                0x08012e34       0x24 usb/usbd/core/src/usbd_core.o
 .text.USBD_Reset
                0x08012e58       0x44 usb/usbd/core/src/usbd_core.o
 .text.USBD_Resume
                0x08012e9c       0x30 usb/usbd/core/src/usbd_core.o
 .text.USBD_Suspend
                0x08012ecc       0x30 usb/usbd/core/src/usbd_core.o
 .text.USBD_SOF
                0x08012efc       0x2c usb/usbd/core/src/usbd_core.o
 .text.USBD_SetCfg
                0x08012f28       0x30 usb/usbd/core/src/usbd_core.o
                0x08012f28                USBD_SetCfg
 .text.USBD_ClrCfg
                0x08012f58       0x28 usb/usbd/core/src/usbd_core.o
                0x08012f58                USBD_ClrCfg
 .text.USBD_IsoINIncomplete
                0x08012f80       0x20 usb/usbd/core/src/usbd_core.o
 .text.USBD_IsoOUTIncomplete
                0x08012fa0       0x20 usb/usbd/core/src/usbd_core.o
 .text.USBD_CtlSendData
                0x08012fc0       0x40 usb/usbd/core/src/usbd_ioreq.o
                0x08012fc0                USBD_CtlSendData
 .text.USBD_CtlContinueSendData
                0x08013000       0x28 usb/usbd/core/src/usbd_ioreq.o
                0x08013000                USBD_CtlContinueSendData
 .text.USBD_CtlPrepareRx
                0x08013028       0x40 usb/usbd/core/src/usbd_ioreq.o
                0x08013028                USBD_CtlPrepareRx
 .text.USBD_CtlContinueRx
                0x08013068       0x28 usb/usbd/core/src/usbd_ioreq.o
                0x08013068                USBD_CtlContinueRx
 .text.USBD_CtlSendStatus
                0x08013090       0x30 usb/usbd/core/src/usbd_ioreq.o
                0x08013090                USBD_CtlSendStatus
 .text.USBD_CtlReceiveStatus
                0x080130c0       0x30 usb/usbd/core/src/usbd_ioreq.o
                0x080130c0                USBD_CtlReceiveStatus
 .text.USBD_StdDevReq
                0x080130f0       0xa0 usb/usbd/core/src/usbd_req.o
                0x080130f0                USBD_StdDevReq
 .text.USBD_StdItfReq
                0x08013190       0x68 usb/usbd/core/src/usbd_req.o
                0x08013190                USBD_StdItfReq
 .text.USBD_StdEPReq
                0x080131f8      0x1b0 usb/usbd/core/src/usbd_req.o
                0x080131f8                USBD_StdEPReq
 .text.USBD_GetDescriptor
                0x080133a8      0x1b8 usb/usbd/core/src/usbd_req.o
 .text.USBD_SetAddress
                0x08013560       0x7c usb/usbd/core/src/usbd_req.o
 .text.USBD_SetConfig
                0x080135dc       0xf4 usb/usbd/core/src/usbd_req.o
 .text.USBD_GetConfig
                0x080136d0       0x60 usb/usbd/core/src/usbd_req.o
 .text.USBD_GetStatus
                0x08013730       0x54 usb/usbd/core/src/usbd_req.o
 .text.USBD_SetFeature
                0x08013784       0xd8 usb/usbd/core/src/usbd_req.o
 .text.USBD_ClrFeature
                0x0801385c       0x50 usb/usbd/core/src/usbd_req.o
 .text.USBD_ParseSetupRequest
                0x080138ac       0x8c usb/usbd/core/src/usbd_req.o
                0x080138ac                USBD_ParseSetupRequest
 .text.USBD_CtlError
                0x08013938       0x28 usb/usbd/core/src/usbd_req.o
                0x08013938                USBD_CtlError
 .text.USBD_GetString
                0x08013960       0x7c usb/usbd/core/src/usbd_req.o
                0x08013960                USBD_GetString
 .text.USBD_GetLen
                0x080139dc       0x30 usb/usbd/core/src/usbd_req.o
 .text.usbd_cdc_Init
                0x08013a0c       0x6c usb/usbd/class/cdc/src/usbd_cdc_core.o
 .text.usbd_cdc_DeInit
                0x08013a78       0x38 usb/usbd/class/cdc/src/usbd_cdc_core.o
 .text.usbd_cdc_Setup
                0x08013ab0      0x134 usb/usbd/class/cdc/src/usbd_cdc_core.o
 .text.usbd_cdc_EP0_RxReady
                0x08013be4       0x44 usb/usbd/class/cdc/src/usbd_cdc_core.o
 .text.usbd_cdc_DataIn
                0x08013c28       0x9c usb/usbd/class/cdc/src/usbd_cdc_core.o
 .text.usbd_cdc_DataOut
                0x08013cc4       0x4c usb/usbd/class/cdc/src/usbd_cdc_core.o
 .text.usbd_cdc_SOF
                0x08013d10       0x30 usb/usbd/class/cdc/src/usbd_cdc_core.o
 .text.Handle_USBAsynchXfer
                0x08013d40       0xd8 usb/usbd/class/cdc/src/usbd_cdc_core.o
 .text.USBD_cdc_GetCfgDesc
                0x08013e18       0x24 usb/usbd/class/cdc/src/usbd_cdc_core.o
 .text.NVIC_PriorityGroupConfig
                0x08013e3c       0x24 cmsis_lib/source/misc.o
                0x08013e3c                NVIC_PriorityGroupConfig
 .text.NVIC_Init
                0x08013e60       0xbc cmsis_lib/source/misc.o
                0x08013e60                NVIC_Init
 .text.SysTick_CLKSourceConfig
                0x08013f1c       0x38 cmsis_lib/source/misc.o
                0x08013f1c                SysTick_CLKSourceConfig
 .text.SYSCFG_EXTILineConfig
                0x08013f54       0x7c cmsis_lib/source/stm32f4xx_syscfg.o
                0x08013f54                SYSCFG_EXTILineConfig
 .text.GPIO_Init
                0x08013fd0      0x11c cmsis_lib/source/stm32f4xx_gpio.o
                0x08013fd0                GPIO_Init
 .text.GPIO_ReadInputDataBit
                0x080140ec       0x34 cmsis_lib/source/stm32f4xx_gpio.o
                0x080140ec                GPIO_ReadInputDataBit
 .text.GPIO_SetBits
                0x08014120       0x1c cmsis_lib/source/stm32f4xx_gpio.o
                0x08014120                GPIO_SetBits
 .text.GPIO_ResetBits
                0x0801413c       0x1c cmsis_lib/source/stm32f4xx_gpio.o
                0x0801413c                GPIO_ResetBits
 .text.GPIO_PinAFConfig
                0x08014158       0x8c cmsis_lib/source/stm32f4xx_gpio.o
                0x08014158                GPIO_PinAFConfig
 .text.ADC_Init
                0x080141e4       0xa8 cmsis_lib/source/stm32f4xx_adc.o
                0x080141e4                ADC_Init
 .text.ADC_StructInit
                0x0801428c       0x3c cmsis_lib/source/stm32f4xx_adc.o
                0x0801428c                ADC_StructInit
 .text.ADC_CommonInit
                0x080142c8       0x50 cmsis_lib/source/stm32f4xx_adc.o
                0x080142c8                ADC_CommonInit
 .text.ADC_Cmd  0x08014318       0x38 cmsis_lib/source/stm32f4xx_adc.o
                0x08014318                ADC_Cmd
 .text.ADC_RegularChannelConfig
                0x08014350      0x188 cmsis_lib/source/stm32f4xx_adc.o
                0x08014350                ADC_RegularChannelConfig
 .text.ADC_SoftwareStartConv
                0x080144d8       0x20 cmsis_lib/source/stm32f4xx_adc.o
                0x080144d8                ADC_SoftwareStartConv
 .text.ADC_GetConversionValue
                0x080144f8       0x1c cmsis_lib/source/stm32f4xx_adc.o
                0x080144f8                ADC_GetConversionValue
 .text.EXTI_Init
                0x08014514       0xdc cmsis_lib/source/stm32f4xx_exti.o
                0x08014514                EXTI_Init
 .text.EXTI_GetITStatus
                0x080145f0       0x48 cmsis_lib/source/stm32f4xx_exti.o
                0x080145f0                EXTI_GetITStatus
 .text.EXTI_ClearITPendingBit
                0x08014638       0x1c cmsis_lib/source/stm32f4xx_exti.o
                0x08014638                EXTI_ClearITPendingBit
 .text.I2C_DeInit
                0x08014654       0x74 cmsis_lib/source/stm32f4xx_i2c.o
                0x08014654                I2C_DeInit
 .text.I2C_Init
                0x080146c8      0x184 cmsis_lib/source/stm32f4xx_i2c.o
                0x080146c8                I2C_Init
 .text.I2C_Cmd  0x0801484c       0x40 cmsis_lib/source/stm32f4xx_i2c.o
                0x0801484c                I2C_Cmd
 .text.I2C_GenerateSTART
                0x0801488c       0x40 cmsis_lib/source/stm32f4xx_i2c.o
                0x0801488c                I2C_GenerateSTART
 .text.I2C_GenerateSTOP
                0x080148cc       0x40 cmsis_lib/source/stm32f4xx_i2c.o
                0x080148cc                I2C_GenerateSTOP
 .text.I2C_Send7bitAddress
                0x0801490c       0x3c cmsis_lib/source/stm32f4xx_i2c.o
                0x0801490c                I2C_Send7bitAddress
 .text.I2C_AcknowledgeConfig
                0x08014948       0x40 cmsis_lib/source/stm32f4xx_i2c.o
                0x08014948                I2C_AcknowledgeConfig
 .text.I2C_SoftwareResetCmd
                0x08014988       0x44 cmsis_lib/source/stm32f4xx_i2c.o
                0x08014988                I2C_SoftwareResetCmd
 .text.I2C_SendData
                0x080149cc       0x20 cmsis_lib/source/stm32f4xx_i2c.o
                0x080149cc                I2C_SendData
 .text.I2C_ReceiveData
                0x080149ec       0x1c cmsis_lib/source/stm32f4xx_i2c.o
                0x080149ec                I2C_ReceiveData
 .text.I2C_CheckEvent
                0x08014a08       0x60 cmsis_lib/source/stm32f4xx_i2c.o
                0x08014a08                I2C_CheckEvent
 .text.I2C_GetFlagStatus
                0x08014a68       0x68 cmsis_lib/source/stm32f4xx_i2c.o
                0x08014a68                I2C_GetFlagStatus
 .text.I2C_ClearFlag
                0x08014ad0       0x2c cmsis_lib/source/stm32f4xx_i2c.o
                0x08014ad0                I2C_ClearFlag
 .text.DAC_Init
                0x08014afc       0x64 cmsis_lib/source/stm32f4xx_dac.o
                0x08014afc                DAC_Init
 .text.DAC_Cmd  0x08014b60       0x48 cmsis_lib/source/stm32f4xx_dac.o
                0x08014b60                DAC_Cmd
 .text.DAC_SetChannel1Data
                0x08014ba8       0x34 cmsis_lib/source/stm32f4xx_dac.o
                0x08014ba8                DAC_SetChannel1Data
 .text.DAC_SetChannel2Data
                0x08014bdc       0x34 cmsis_lib/source/stm32f4xx_dac.o
                0x08014bdc                DAC_SetChannel2Data
 .text.FSMC_NORSRAMInit
                0x08014c10      0x134 cmsis_lib/source/stm32f4xx_fsmc.o
                0x08014c10                FSMC_NORSRAMInit
 .text.FSMC_NORSRAMCmd
                0x08014d44       0x54 cmsis_lib/source/stm32f4xx_fsmc.o
                0x08014d44                FSMC_NORSRAMCmd
 .text.FLASH_Unlock
                0x08014d98       0x2c cmsis_lib/source/stm32f4xx_flash.o
                0x08014d98                FLASH_Unlock
 .text.FLASH_Lock
                0x08014dc4       0x1c cmsis_lib/source/stm32f4xx_flash.o
                0x08014dc4                FLASH_Lock
 .text.FLASH_EraseSector
                0x08014de0       0xc0 cmsis_lib/source/stm32f4xx_flash.o
                0x08014de0                FLASH_EraseSector
 .text.FLASH_ProgramHalfWord
                0x08014ea0       0x6c cmsis_lib/source/stm32f4xx_flash.o
                0x08014ea0                FLASH_ProgramHalfWord
 .text.FLASH_GetStatus
                0x08014f0c       0x68 cmsis_lib/source/stm32f4xx_flash.o
                0x08014f0c                FLASH_GetStatus
 .text.FLASH_WaitForLastOperation
                0x08014f74       0x30 cmsis_lib/source/stm32f4xx_flash.o
                0x08014f74                FLASH_WaitForLastOperation
 .text.SPI_I2S_DeInit
                0x08014fa4       0x74 cmsis_lib/source/stm32f4xx_spi.o
                0x08014fa4                SPI_I2S_DeInit
 .text.SPI_Init
                0x08015018       0x88 cmsis_lib/source/stm32f4xx_spi.o
                0x08015018                SPI_Init
 .text.I2S_Init
                0x080150a0      0x1b0 cmsis_lib/source/stm32f4xx_spi.o
                0x080150a0                I2S_Init
 .text.SPI_Cmd  0x08015250       0x40 cmsis_lib/source/stm32f4xx_spi.o
                0x08015250                SPI_Cmd
 .text.I2S_Cmd  0x08015290       0x40 cmsis_lib/source/stm32f4xx_spi.o
                0x08015290                I2S_Cmd
 .text.I2S_FullDuplexConfig
                0x080152d0       0x9c cmsis_lib/source/stm32f4xx_spi.o
                0x080152d0                I2S_FullDuplexConfig
 .text.SPI_I2S_ReceiveData
                0x0801536c       0x1c cmsis_lib/source/stm32f4xx_spi.o
                0x0801536c                SPI_I2S_ReceiveData
 .text.SPI_I2S_SendData
                0x08015388       0x1c cmsis_lib/source/stm32f4xx_spi.o
                0x08015388                SPI_I2S_SendData
 .text.SPI_I2S_DMACmd
                0x080153a4       0x48 cmsis_lib/source/stm32f4xx_spi.o
                0x080153a4                SPI_I2S_DMACmd
 .text.SPI_I2S_GetFlagStatus
                0x080153ec       0x38 cmsis_lib/source/stm32f4xx_spi.o
                0x080153ec                SPI_I2S_GetFlagStatus
 .text.DMA_DeInit
                0x08015424      0x1a4 cmsis_lib/source/stm32f4xx_dma.o
                0x08015424                DMA_DeInit
 .text.DMA_Init
                0x080155c8       0xac cmsis_lib/source/stm32f4xx_dma.o
                0x080155c8                DMA_Init
 .text.DMA_Cmd  0x08015674       0x38 cmsis_lib/source/stm32f4xx_dma.o
                0x08015674                DMA_Cmd
 .text.DMA_GetFlagStatus
                0x080156ac       0x78 cmsis_lib/source/stm32f4xx_dma.o
                0x080156ac                DMA_GetFlagStatus
 .text.DMA_ClearFlag
                0x08015724       0x5c cmsis_lib/source/stm32f4xx_dma.o
                0x08015724                DMA_ClearFlag
 .text.DMA_ITConfig
                0x08015780       0x74 cmsis_lib/source/stm32f4xx_dma.o
                0x08015780                DMA_ITConfig
 .text.TIM_TimeBaseInit
                0x080157f4       0xd4 cmsis_lib/source/stm32f4xx_tim.o
                0x080157f4                TIM_TimeBaseInit
 .text.TIM_GetCounter
                0x080158c8       0x18 cmsis_lib/source/stm32f4xx_tim.o
                0x080158c8                TIM_GetCounter
 .text.TIM_Cmd  0x080158e0       0x40 cmsis_lib/source/stm32f4xx_tim.o
                0x080158e0                TIM_Cmd
 .text.TIM_GetITStatus
                0x08015920       0x54 cmsis_lib/source/stm32f4xx_tim.o
                0x08015920                TIM_GetITStatus
 .text.TIM_ClearITPendingBit
                0x08015974       0x20 cmsis_lib/source/stm32f4xx_tim.o
                0x08015974                TIM_ClearITPendingBit
 .text.TIM_EncoderInterfaceConfig
                0x08015994       0x8c cmsis_lib/source/stm32f4xx_tim.o
                0x08015994                TIM_EncoderInterfaceConfig
 .text.RCC_MCO2Config
                0x08015a20       0x3c cmsis_lib/source/stm32f4xx_rcc.o
                0x08015a20                RCC_MCO2Config
 .text.RCC_GetClocksFreq
                0x08015a5c      0x148 cmsis_lib/source/stm32f4xx_rcc.o
                0x08015a5c                RCC_GetClocksFreq
 .text.RCC_AHB1PeriphClockCmd
                0x08015ba4       0x3c cmsis_lib/source/stm32f4xx_rcc.o
                0x08015ba4                RCC_AHB1PeriphClockCmd
 .text.RCC_AHB2PeriphClockCmd
                0x08015be0       0x3c cmsis_lib/source/stm32f4xx_rcc.o
                0x08015be0                RCC_AHB2PeriphClockCmd
 .text.RCC_AHB3PeriphClockCmd
                0x08015c1c       0x3c cmsis_lib/source/stm32f4xx_rcc.o
                0x08015c1c                RCC_AHB3PeriphClockCmd
 .text.RCC_APB1PeriphClockCmd
                0x08015c58       0x3c cmsis_lib/source/stm32f4xx_rcc.o
                0x08015c58                RCC_APB1PeriphClockCmd
 .text.RCC_APB2PeriphClockCmd
                0x08015c94       0x3c cmsis_lib/source/stm32f4xx_rcc.o
                0x08015c94                RCC_APB2PeriphClockCmd
 .text.RCC_APB1PeriphResetCmd
                0x08015cd0       0x3c cmsis_lib/source/stm32f4xx_rcc.o
                0x08015cd0                RCC_APB1PeriphResetCmd
 .text.RCC_APB2PeriphResetCmd
                0x08015d0c       0x3c cmsis_lib/source/stm32f4xx_rcc.o
                0x08015d0c                RCC_APB2PeriphResetCmd
 .text.OTG_FS_IRQHandler
                0x08015d48       0x10 drivers/cat/cat_driver.o
                0x08015d48                OTG_FS_IRQHandler
 .text.cat_driver_init
                0x08015d58       0x34 drivers/cat/cat_driver.o
                0x08015d58                cat_driver_init
 .text.cat_driver_stop
                0x08015d8c       0x1c drivers/cat/cat_driver.o
                0x08015d8c                cat_driver_stop
 .text.USBD_USR_Init
                0x08015da8        0xc drivers/cat/usb/usbd_usr.o
                0x08015da8                USBD_USR_Init
 .text.USBD_USR_DeviceReset
                0x08015db4       0x20 drivers/cat/usb/usbd_usr.o
                0x08015db4                USBD_USR_DeviceReset
 .text.USBD_USR_DeviceConfigured
                0x08015dd4        0xc drivers/cat/usb/usbd_usr.o
                0x08015dd4                USBD_USR_DeviceConfigured
 .text.USBD_USR_DeviceSuspended
                0x08015de0        0xc drivers/cat/usb/usbd_usr.o
                0x08015de0                USBD_USR_DeviceSuspended
 .text.USBD_USR_DeviceResumed
                0x08015dec        0xc drivers/cat/usb/usbd_usr.o
                0x08015dec                USBD_USR_DeviceResumed
 .text.USBD_USR_DeviceConnected
                0x08015df8        0xc drivers/cat/usb/usbd_usr.o
                0x08015df8                USBD_USR_DeviceConnected
 .text.USBD_USR_DeviceDisconnected
                0x08015e04        0xc drivers/cat/usb/usbd_usr.o
                0x08015e04                USBD_USR_DeviceDisconnected
 .text.USBD_OTG_BSP_Init
                0x08015e10       0x50 drivers/cat/usb/usbd_bsp.o
                0x08015e10                USBD_OTG_BSP_Init
 .text.USBD_OTG_BSP_DeInit
                0x08015e60       0x4c drivers/cat/usb/usbd_bsp.o
                0x08015e60                USBD_OTG_BSP_DeInit
 .text.USBD_OTG_BSP_EnableInterrupt
                0x08015eac       0x30 drivers/cat/usb/usbd_bsp.o
                0x08015eac                USBD_OTG_BSP_EnableInterrupt
 .text.USBD_OTG_BSP_uDelay
                0x08015edc       0x48 drivers/cat/usb/usbd_bsp.o
                0x08015edc                USBD_OTG_BSP_uDelay
 .text.USBD_OTG_BSP_mDelay
                0x08015f24       0x20 drivers/cat/usb/usbd_bsp.o
                0x08015f24                USBD_OTG_BSP_mDelay
 .text.USBD_USR_DeviceDescriptor
                0x08015f44       0x24 drivers/cat/usb/usbd_desc.o
                0x08015f44                USBD_USR_DeviceDescriptor
 .text.USBD_USR_LangIDStrDescriptor
                0x08015f68       0x24 drivers/cat/usb/usbd_desc.o
                0x08015f68                USBD_USR_LangIDStrDescriptor
 .text.USBD_USR_ProductStrDescriptor
                0x08015f8c       0x40 drivers/cat/usb/usbd_desc.o
                0x08015f8c                USBD_USR_ProductStrDescriptor
 .text.USBD_USR_ManufacturerStrDescriptor
                0x08015fcc       0x28 drivers/cat/usb/usbd_desc.o
                0x08015fcc                USBD_USR_ManufacturerStrDescriptor
 .text.USBD_USR_SerialStrDescriptor
                0x08015ff4       0x40 drivers/cat/usb/usbd_desc.o
                0x08015ff4                USBD_USR_SerialStrDescriptor
 .text.USBD_USR_ConfigStrDescriptor
                0x08016034       0x3c drivers/cat/usb/usbd_desc.o
                0x08016034                USBD_USR_ConfigStrDescriptor
 .text.USBD_USR_InterfaceStrDescriptor
                0x08016070       0x3c drivers/cat/usb/usbd_desc.o
                0x08016070                USBD_USR_InterfaceStrDescriptor
 .text.VCP_Init
                0x080160ac       0x14 drivers/cat/usb/usbd_cdc_vcp.o
 .text.VCP_DeInit
                0x080160c0       0x10 drivers/cat/usb/usbd_cdc_vcp.o
 .text.VCP_Ctrl
                0x080160d0      0x1b0 drivers/cat/usb/usbd_cdc_vcp.o
 .text.VCP_DataTx
                0x08016280       0x40 drivers/cat/usb/usbd_cdc_vcp.o
 .text.VCP_DataRx
                0x080162c0       0x2c drivers/cat/usb/usbd_cdc_vcp.o
 .text.VCP_COMConfig
                0x080162ec       0x74 drivers/cat/usb/usbd_cdc_vcp.o
 .text.cw_gen_init
                0x08016360       0x58 drivers/audio/cw/cw_gen.o
                0x08016360                cw_gen_init
 .text.cw_gen_remove_click_on_rising_edge
                0x080163b8       0xb8 drivers/audio/cw/cw_gen.o
                0x080163b8                cw_gen_remove_click_on_rising_edge
 .text.cw_gen_remove_click_on_falling_edge
                0x08016470       0xc8 drivers/audio/cw/cw_gen.o
                0x08016470                cw_gen_remove_click_on_falling_edge
 .text.cw_gen_check_keyer_state
                0x08016538       0x88 drivers/audio/cw/cw_gen.o
                0x08016538                cw_gen_check_keyer_state
 .text.cw_gen_process
                0x080165c0       0x40 drivers/audio/cw/cw_gen.o
                0x080165c0                cw_gen_process
 .text.cw_gen_process_strk
                0x08016600       0xe4 drivers/audio/cw/cw_gen.o
                0x08016600                cw_gen_process_strk
 .text.cw_gen_process_iamb
                0x080166e4      0x244 drivers/audio/cw/cw_gen.o
                0x080166e4                cw_gen_process_iamb
 .text.cw_gen_dah_IRQ
                0x08016928       0x70 drivers/audio/cw/cw_gen.o
                0x08016928                cw_gen_dah_IRQ
 .text.cw_gen_dit_IRQ
                0x08016998       0x30 drivers/audio/cw/cw_gen.o
                0x08016998                cw_gen_dit_IRQ
 .text.audio_driver_init
                0x080169c8      0x1a0 drivers/audio/audio_driver.o
                0x080169c8                audio_driver_init
 .text.audio_driver_set_rx_audio_filter
                0x08016b68      0x7cc drivers/audio/audio_driver.o
                0x08016b68                audio_driver_set_rx_audio_filter
 .text.Audio_TXFilter_Init
                0x08017334       0x84 drivers/audio/audio_driver.o
                0x08017334                Audio_TXFilter_Init
 .text.Audio_Init
                0x080173b8       0x2c drivers/audio/audio_driver.o
 *fill*         0x080173e4        0x4 
 .text.audio_rx_noise_blanker
                0x080173e8      0x788 drivers/audio/audio_driver.o
 .text.audio_rx_freq_conv
                0x08017b70      0x20c drivers/audio/audio_driver.o
 *fill*         0x08017d7c        0x4 
 .text.audio_rx_agc_processor
                0x08017d80      0x3f0 drivers/audio/audio_driver.o
 .text.audio_demod_fm
                0x08018170      0xc60 drivers/audio/audio_driver.o
 .text.audio_demod_am
                0x08018dd0       0xcc drivers/audio/audio_driver.o
 .text.audio_lms_notch_filter
                0x08018e9c       0xd8 drivers/audio/audio_driver.o
 .text.audio_lms_noise_reduction
                0x08018f74      0x140 drivers/audio/audio_driver.o
 *fill*         0x080190b4        0x4 
 .text.audio_rx_processor
                0x080190b8      0x738 drivers/audio/audio_driver.o
 .text.audio_dv_rx_processor
                0x080197f0      0x518 drivers/audio/audio_driver.o
 .text.audio_tx_compressor
                0x08019d08      0x350 drivers/audio/audio_driver.o
 .text.audio_tx_processor
                0x0801a058     0x1428 drivers/audio/audio_driver.o
 .text.audio_dv_tx_processor
                0x0801b480      0x3f0 drivers/audio/audio_driver.o
 .text.I2S_RX_CallBack
                0x0801b870      0x234 drivers/audio/audio_driver.o
                0x0801b870                I2S_RX_CallBack
 .text.Codec_Init
                0x0801baa4       0x28 drivers/audio/codec/codec.o
                0x0801baa4                Codec_Init
 .text.Codec_Reset
                0x0801bacc       0xa0 drivers/audio/codec/codec.o
                0x0801bacc                Codec_Reset
 .text.Codec_RX_TX
                0x0801bb6c      0x160 drivers/audio/codec/codec.o
                0x0801bb6c                Codec_RX_TX
 .text.Codec_SidetoneSetgain
                0x0801bccc       0xf0 drivers/audio/codec/codec.o
                0x0801bccc                Codec_SidetoneSetgain
 .text.Codec_Volume
                0x0801bdbc       0x90 drivers/audio/codec/codec.o
                0x0801bdbc                Codec_Volume
 .text.Codec_Mute
                0x0801be4c       0x28 drivers/audio/codec/codec.o
                0x0801be4c                Codec_Mute
 .text.Codec_WriteRegister
                0x0801be74       0x48 drivers/audio/codec/codec.o
                0x0801be74                Codec_WriteRegister
 .text.Codec_AudioInterface_Init
                0x0801bebc       0x58 drivers/audio/codec/codec.o
                0x0801bebc                Codec_AudioInterface_Init
 .text.Codec_GPIO_Init
                0x0801bf14       0xa8 drivers/audio/codec/codec.o
                0x0801bf14                Codec_GPIO_Init
 .text.Codec_Line_Gain_Adj
                0x0801bfbc       0x28 drivers/audio/codec/codec.o
                0x0801bfbc                Codec_Line_Gain_Adj
 .text.NVIC_EnableIRQ
                0x0801bfe4       0x30 drivers/audio/codec/i2s.o
 .text.I2S_Block_Init
                0x0801c014      0x14c drivers/audio/codec/i2s.o
                0x0801c014                I2S_Block_Init
 .text.I2S_Block_Process
                0x0801c160       0xac drivers/audio/codec/i2s.o
                0x0801c160                I2S_Block_Process
 .text.DMA1_Stream2_IRQHandler
                0x0801c20c       0xe0 drivers/audio/codec/i2s.o
                0x0801c20c                DMA1_Stream2_IRQHandler
 .text.softdds_setfreq
                0x0801c2ec       0x68 drivers/audio/softdds/softdds.o
                0x0801c2ec                softdds_setfreq
 .text.softdds_runf
                0x0801c354       0xa4 drivers/audio/softdds/softdds.o
                0x0801c354                softdds_runf
 .text.USBH_OTG_BSP_TimerIRQ
                0x0801c3f8       0x44 drivers/keyboard/usb/usbh_bsp.o
                0x0801c3f8                USBH_OTG_BSP_TimerIRQ
 .text.TIM2_IRQHandler
                0x0801c43c        0xc drivers/keyboard/keyb_driver.o
                0x0801c43c                TIM2_IRQHandler
 .text.OTG_HS_IRQHandler
                0x0801c448        0xc drivers/keyboard/keyb_driver.o
                0x0801c448                OTG_HS_IRQHandler
 .text.ui_si570_setbits
                0x0801c454       0x2c drivers/ui/oscillator/ui_si570.o
 .text.ui_si570_verify_frequency
                0x0801c480       0x6c drivers/ui/oscillator/ui_si570.o
 .text.ui_si570_small_frequency_change
                0x0801c4ec       0xd8 drivers/ui/oscillator/ui_si570.o
 .text.ui_si570_large_frequency_change
                0x0801c5c4      0x15c drivers/ui/oscillator/ui_si570.o
 .text.ui_si570_is_large_change
                0x0801c720       0xb0 drivers/ui/oscillator/ui_si570.o
 .text.ui_si570_get_configuration
                0x0801c7d0      0x1fc drivers/ui/oscillator/ui_si570.o
                0x0801c7d0                ui_si570_get_configuration
 .text.ui_si570_change_frequency
                0x0801c9cc      0x324 drivers/ui/oscillator/ui_si570.o
 .text.ui_si570_set_frequency
                0x0801ccf0       0xf8 drivers/ui/oscillator/ui_si570.o
                0x0801ccf0                ui_si570_set_frequency
 .text.ui_si570_init_temp_sensor
                0x0801cde8       0x68 drivers/ui/oscillator/ui_si570.o
                0x0801cde8                ui_si570_init_temp_sensor
 .text.ui_si570_read_temp
                0x0801ce50       0x3c drivers/ui/oscillator/ui_si570.o
                0x0801ce50                ui_si570_read_temp
 .text.ui_si570_conv_temp
                0x0801ce8c       0xa4 drivers/ui/oscillator/ui_si570.o
                0x0801ce8c                ui_si570_conv_temp
 .text.ui_si570_calc_startupfrequency
                0x0801cf30      0x2d8 drivers/ui/oscillator/ui_si570.o
                0x0801cf30                ui_si570_calc_startupfrequency
 .text.UiDriverUpdateMenu
                0x0801d208     0x19fc drivers/ui/ui_menu.o
                0x0801d208                UiDriverUpdateMenu
 .text.UiDriverUpdateMenuLines
                0x0801ec04     0x3da0 drivers/ui/ui_menu.o
 .text.UiDriverUpdateConfigMenuLines
                0x080229a4     0x3ff8 drivers/ui/ui_menu.o
 .text.UiDriverMemMenu
                0x0802699c      0x2f8 drivers/ui/ui_menu.o
                0x0802699c                UiDriverMemMenu
 .text.UiDriverUpdateMemLines
                0x08026c94      0x100 drivers/ui/ui_menu.o
                0x08026c94                UiDriverUpdateMemLines
 .text.ui_driver_init
                0x08026d94      0x170 drivers/ui/ui_driver.o
                0x08026d94                ui_driver_init
 .text.ui_driver_thread
                0x08026f04      0x130 drivers/ui/ui_driver.o
                0x08026f04                ui_driver_thread
 .text.ui_driver_toggle_tx
                0x08027034      0x334 drivers/ui/ui_driver.o
                0x08027034                ui_driver_toggle_tx
 .text.UiDriverPublicsInit
                0x08027368      0x134 drivers/ui/ui_driver.o
 .text.UiDriverProcessKeyboard
                0x0802749c      0xd30 drivers/ui/ui_driver.o
 .text.UiInitRxParms
                0x080281cc       0x78 drivers/ui/ui_driver.o
 .text.UiDriverPressHoldStep
                0x08028244       0xcc drivers/ui/ui_driver.o
 .text.UiDriverProcessActiveFilterScan
                0x08028310      0x224 drivers/ui/ui_driver.o
 .text.UiDriverProcessFunctionKeyClick
                0x08028534      0x9ec drivers/ui/ui_driver.o
 .text.UiDriverShowMode
                0x08028f20      0x1bc drivers/ui/ui_driver.o
                0x08028f20                UiDriverShowMode
 .text.UiDriverShowStep
                0x080290dc      0x214 drivers/ui/ui_driver.o
                0x080290dc                UiDriverShowStep
 .text.UiDriverShowBand
                0x080292f0      0x188 drivers/ui/ui_driver.o
 .text.UiDriverChangeBandFilter
                0x08029478      0x238 drivers/ui/ui_driver.o
                0x08029478                UiDriverChangeBandFilter
 .text.UiDriverInitMainFreqDisplay
                0x080296b0      0x13c drivers/ui/ui_driver.o
 .text.UiDriverCreateDesktop
                0x080297ec      0x194 drivers/ui/ui_driver.o
 .text.UiDriverCreateFunctionButtons
                0x08029980      0x228 drivers/ui/ui_driver.o
 .text.UiDriverDrawWhiteSMeter
                0x08029ba8       0xbc drivers/ui/ui_driver.o
 .text.UiDriverDrawRedSMeter
                0x08029c64       0xbc drivers/ui/ui_driver.o
 .text.UiDriverDeleteSMeter
                0x08029d20       0x40 drivers/ui/ui_driver.o
 .text.UiDriverCreateSMeter
                0x08029d60      0x7f8 drivers/ui/ui_driver.o
 .text.UiDriverUpdateTopMeterA
                0x0802a558       0xe0 drivers/ui/ui_driver.o
 .text.UiDriverUpdateBtmMeter
                0x0802a638       0xec drivers/ui/ui_driver.o
 .text.UiDrawSpectrumScopeFrequencyBarText
                0x0802a724      0x570 drivers/ui/ui_driver.o
                0x0802a724                UiDrawSpectrumScopeFrequencyBarText
 .text.UiDriverCreateSpectrumScope
                0x0802ac94      0x62c drivers/ui/ui_driver.o
                0x0802ac94                UiDriverCreateSpectrumScope
 .text.UiDriverClearSpectrumDisplay
                0x0802b2c0       0x70 drivers/ui/ui_driver.o
                0x0802b2c0                UiDriverClearSpectrumDisplay
 .text.UiDriverInitFrequency
                0x0802b330      0x128 drivers/ui/ui_driver.o
 .text.UiDriverCheckFilter
                0x0802b458       0xb4 drivers/ui/ui_driver.o
 .text.UiDriverCheckBand
                0x0802b50c       0xbc drivers/ui/ui_driver.o
                0x0802b50c                UiDriverCheckBand
 .text.UiDriverUpdateFrequency
                0x0802b5c8      0x36c drivers/ui/ui_driver.o
                0x0802b5c8                UiDriverUpdateFrequency
 .text.UiDriverUpdateFrequencyFast
                0x0802b934      0x15c drivers/ui/ui_driver.o
                0x0802b934                UiDriverUpdateFrequencyFast
 .text.UiDriverUpdateLcdFreq
                0x0802ba90      0x63c drivers/ui/ui_driver.o
 .text.UiDriverUpdateSecondLcdFreq
                0x0802c0cc      0x518 drivers/ui/ui_driver.o
 .text.UiDriverChangeTuningStep
                0x0802c5e4       0xbc drivers/ui/ui_driver.o
                0x0802c5e4                UiDriverChangeTuningStep
 .text.UiDriverButtonCheck
                0x0802c6a0       0x5c drivers/ui/ui_driver.o
 *fill*         0x0802c6fc        0x4 
 .text.UiDriverTimeScheduler
                0x0802c700      0x8b8 drivers/ui/ui_driver.o
 .text.UiDriverChangeDemodMode
                0x0802cfb8      0x19c drivers/ui/ui_driver.o
 .text.UiDriverChangeBand
                0x0802d154      0x1d4 drivers/ui/ui_driver.o
 .text.UiDriverCheckFrequencyEncoder
                0x0802d328      0x100 drivers/ui/ui_driver.o
 .text.UiDriverCheckEncoderOne
                0x0802d428      0x234 drivers/ui/ui_driver.o
 .text.UiDriverCheckEncoderTwo
                0x0802d65c      0x3cc drivers/ui/ui_driver.o
 .text.UiDriverCheckEncoderThree
                0x0802da28      0x3c0 drivers/ui/ui_driver.o
 .text.UiDriverChangeEncoderOneMode
                0x0802dde8       0xd8 drivers/ui/ui_driver.o
 .text.UiDriverChangeEncoderTwoMode
                0x0802dec0       0x9c drivers/ui/ui_driver.o
 .text.UiDriverChangeEncoderThreeMode
                0x0802df5c       0xd8 drivers/ui/ui_driver.o
 .text.UiDriverChangeAfGain
                0x0802e034       0xa8 drivers/ui/ui_driver.o
 .text.UiDriverChangeStGain
                0x0802e0dc       0xa8 drivers/ui/ui_driver.o
                0x0802e0dc                UiDriverChangeStGain
 .text.UiDriverChangeCmpLevel
                0x0802e184       0xd4 drivers/ui/ui_driver.o
                0x0802e184                UiDriverChangeCmpLevel
 .text.UiDriverChangeDSPMode
                0x0802e258      0x1b0 drivers/ui/ui_driver.o
 .text.UiDriverChangePowerLevel
                0x0802e408       0xe8 drivers/ui/ui_driver.o
 .text.UiDriverChangeKeyerSpeed
                0x0802e4f0       0xc0 drivers/ui/ui_driver.o
                0x0802e4f0                UiDriverChangeKeyerSpeed
 .text.UIDriverChangeAudioGain
                0x0802e5b0      0x104 drivers/ui/ui_driver.o
                0x0802e5b0                UIDriverChangeAudioGain
 .text.UiDriverChangeRfGain
                0x0802e6b4      0x138 drivers/ui/ui_driver.o
                0x0802e6b4                UiDriverChangeRfGain
 .text.UiDriverChangeSigProc
                0x0802e7ec      0x1c8 drivers/ui/ui_driver.o
 .text.UiDriverChangeRit
                0x0802e9b4       0xe8 drivers/ui/ui_driver.o
 .text.UiDriverChangeFilter
                0x0802ea9c      0x268 drivers/ui/ui_driver.o
                0x0802ea9c                UiDriverChangeFilter
 .text.UiDriverDisplayFilterBW
                0x0802ed04      0x564 drivers/ui/ui_driver.o
                0x0802ed04                UiDriverDisplayFilterBW
 .text.UiDriverFFTWindowFunction
                0x0802f268      0x5f0 drivers/ui/ui_driver.o
 .text.UiDriverInitSpectrumDisplay
                0x0802f858      0x370 drivers/ui/ui_driver.o
 .text.UiDriverReDrawSpectrumDisplay
                0x0802fbc8      0xa0c drivers/ui/ui_driver.o
 *fill*         0x080305d4        0x4 
 .text.UiDriverReDrawWaterfallDisplay
                0x080305d8      0xb48 drivers/ui/ui_driver.o
 .text.UiDriverGetScopeTraceColour
                0x08031120       0xa8 drivers/ui/ui_driver.o
 .text.UiInitSpectrumScopeWaterfall
                0x080311c8       0x28 drivers/ui/ui_driver.o
 .text.UiDriverHandleSmeter
                0x080311f0      0x300 drivers/ui/ui_driver.o
 .text.UiDriverHandleLowerMeter
                0x080314f0      0xd28 drivers/ui/ui_driver.o
 .text.UiDriverHandlePowerSupply
                0x08032218      0x2a4 drivers/ui/ui_driver.o
 .text.UiDriverUpdateLoMeter
                0x080324bc       0xe0 drivers/ui/ui_driver.o
 .text.UiDriverCreateTemperatureDisplay
                0x0803259c      0x140 drivers/ui/ui_driver.o
                0x0803259c                UiDriverCreateTemperatureDisplay
 .text.UiDriverRefreshTemperatureDisplay
                0x080326dc      0x250 drivers/ui/ui_driver.o
 .text.UiDriverHandleLoTemperature
                0x0803292c      0x278 drivers/ui/ui_driver.o
 .text.UiDriverSwitchOffPtt
                0x08032ba4       0xdc drivers/ui/ui_driver.o
 .text.uiCodecMute
                0x08032c80       0x18 drivers/ui/ui_driver.o
                0x08032c80                uiCodecMute
 .text.UiDriverSetBandPowerFactor
                0x08032c98      0x28c drivers/ui/ui_driver.o
                0x08032c98                UiDriverSetBandPowerFactor
 .text.UiLCDBlankTiming
                0x08032f24       0x54 drivers/ui/ui_driver.o
                0x08032f24                UiLCDBlankTiming
 .text.UiCalcAGCDecay
                0x08032f78       0xc4 drivers/ui/ui_driver.o
                0x08032f78                UiCalcAGCDecay
 .text.UiCalcALCDecay
                0x0803303c       0x74 drivers/ui/ui_driver.o
                0x0803303c                UiCalcALCDecay
 .text.UiCalcRFGain
                0x080330b0       0x90 drivers/ui/ui_driver.o
                0x080330b0                UiCalcRFGain
 .text.UiCalcAGCVals
                0x08033140      0x118 drivers/ui/ui_driver.o
                0x08033140                UiCalcAGCVals
 .text.UiCWSidebandMode
                0x08033258       0x8c drivers/ui/ui_driver.o
                0x08033258                UiCWSidebandMode
 *fill*         0x080332e4        0x4 
 .text.UiCalcNB_AGC
                0x080332e8       0xe8 drivers/ui/ui_driver.o
                0x080332e8                UiCalcNB_AGC
 .text.UiCalcRxIqGainAdj
                0x080333d0       0xd0 drivers/ui/ui_driver.o
                0x080333d0                UiCalcRxIqGainAdj
 .text.UiCalcTxIqGainAdj
                0x080334a0       0xd4 drivers/ui/ui_driver.o
                0x080334a0                UiCalcTxIqGainAdj
 .text.UiCalcRxPhaseAdj
                0x08033574      0x880 drivers/ui/ui_driver.o
                0x08033574                UiCalcRxPhaseAdj
 .text.UiCalcTxCompLevel
                0x08033df4      0x1d8 drivers/ui/ui_driver.o
                0x08033df4                UiCalcTxCompLevel
 .text.UiCalcSubaudibleGenFreq
                0x08033fcc       0x58 drivers/ui/ui_driver.o
                0x08033fcc                UiCalcSubaudibleGenFreq
 *fill*         0x08034024        0x4 
 .text.UiCalcSubaudibleDetFreq
                0x08034028      0x3f8 drivers/ui/ui_driver.o
                0x08034028                UiCalcSubaudibleDetFreq
 .text.UiLoadToneBurstMode
                0x08034420       0x58 drivers/ui/ui_driver.o
                0x08034420                UiLoadToneBurstMode
 .text.UiLoadBeepFreq
                0x08034478       0xc8 drivers/ui/ui_driver.o
                0x08034478                UiLoadBeepFreq
 .text.UiKeyBeep
                0x08034540       0x24 drivers/ui/ui_driver.o
                0x08034540                UiKeyBeep
 .text.UiCalcTxPhaseAdj
                0x08034564      0x220 drivers/ui/ui_driver.o
                0x08034564                UiCalcTxPhaseAdj
 .text.UiDriverLoadFilterValue
                0x08034784       0x50 drivers/ui/ui_driver.o
                0x08034784                UiDriverLoadFilterValue
 .text.UiCheckForEEPROMLoadDefaultRequest
                0x080347d4      0x2a0 drivers/ui/ui_driver.o
                0x080347d4                UiCheckForEEPROMLoadDefaultRequest
 .text.UiCheckForEEPROMLoadFreqModeDefaultRequest
                0x08034a74      0x27c drivers/ui/ui_driver.o
                0x08034a74                UiCheckForEEPROMLoadFreqModeDefaultRequest
 .text.UiCheckForPressedKey
                0x08034cf0      0x344 drivers/ui/ui_driver.o
                0x08034cf0                UiCheckForPressedKey
 .text.UiDriverLoadEepromValues
                0x08035034     0x1ef8 drivers/ui/ui_driver.o
 .text.UiDriverSaveEepromValuesPowerDown
                0x08036f2c     0x1958 drivers/ui/ui_driver.o
                0x08036f2c                UiDriverSaveEepromValuesPowerDown
 .text.UiRotaryFreqEncoderInit
                0x08038884       0x8c drivers/ui/encoder/ui_rotary.o
                0x08038884                UiRotaryFreqEncoderInit
 .text.UiRotaryEncoderOneInit
                0x08038910       0x8c drivers/ui/encoder/ui_rotary.o
                0x08038910                UiRotaryEncoderOneInit
 .text.UiRotaryEncoderTwoInit
                0x0803899c       0x90 drivers/ui/encoder/ui_rotary.o
                0x0803899c                UiRotaryEncoderTwoInit
 .text.UiRotaryEncoderThreeInit
                0x08038a2c       0x8c drivers/ui/encoder/ui_rotary.o
                0x08038a2c                UiRotaryEncoderThreeInit
 .text.UiLcdHy28_Delay
                0x08038ab8       0x38 drivers/ui/lcd/ui_lcd_hy28.o
                0x08038ab8                UiLcdHy28_Delay
 .text.UiLcdHy28_BacklightInit
                0x08038af0       0x34 drivers/ui/lcd/ui_lcd_hy28.o
                0x08038af0                UiLcdHy28_BacklightInit
 .text.UiLcdHy28_SpiInit
                0x08038b24      0x10c drivers/ui/lcd/ui_lcd_hy28.o
                0x08038b24                UiLcdHy28_SpiInit
 .text.UiLcdHy28_SpiDeInit
                0x08038c30       0x78 drivers/ui/lcd/ui_lcd_hy28.o
                0x08038c30                UiLcdHy28_SpiDeInit
 .text.UiLcdHy28_ParallelInit
                0x08038ca8      0x138 drivers/ui/lcd/ui_lcd_hy28.o
                0x08038ca8                UiLcdHy28_ParallelInit
 .text.UiLcdHy28_Reset
                0x08038de0       0x3c drivers/ui/lcd/ui_lcd_hy28.o
                0x08038de0                UiLcdHy28_Reset
 .text.UiLcdHy28_FSMCConfig
                0x08038e1c       0x80 drivers/ui/lcd/ui_lcd_hy28.o
                0x08038e1c                UiLcdHy28_FSMCConfig
 .text.UiLcdHy28_SendByteSpi
                0x08038e9c       0x48 drivers/ui/lcd/ui_lcd_hy28.o
                0x08038e9c                UiLcdHy28_SendByteSpi
 .text.UiLcdHy28_ReadByteSpi
                0x08038ee4       0x74 drivers/ui/lcd/ui_lcd_hy28.o
 .text.UiLcdHy28_WriteIndexSpi
                0x08038f58       0x50 drivers/ui/lcd/ui_lcd_hy28.o
                0x08038f58                UiLcdHy28_WriteIndexSpi
 .text.UiLcdHy28_WriteDataSpi
                0x08038fa8       0x5c drivers/ui/lcd/ui_lcd_hy28.o
                0x08038fa8                UiLcdHy28_WriteDataSpi
 .text.UiLcdHy28_WriteDataSpiStart
                0x08039004        0xc drivers/ui/lcd/ui_lcd_hy28.o
                0x08039004                UiLcdHy28_WriteDataSpiStart
 .text.UiLcdHy28_WriteDataOnly
                0x08039010       0x48 drivers/ui/lcd/ui_lcd_hy28.o
                0x08039010                UiLcdHy28_WriteDataOnly
 .text.UiLcdHy28_ReadDataSpi
                0x08039058       0x6c drivers/ui/lcd/ui_lcd_hy28.o
                0x08039058                UiLcdHy28_ReadDataSpi
 .text.UiLcdHy28_WriteReg
                0x080390c4       0x50 drivers/ui/lcd/ui_lcd_hy28.o
                0x080390c4                UiLcdHy28_WriteReg
 .text.UiLcdHy28_ReadReg
                0x08039114       0x4c drivers/ui/lcd/ui_lcd_hy28.o
                0x08039114                UiLcdHy28_ReadReg
 .text.UiLcdHy28_SetCursorA
                0x08039160       0x28 drivers/ui/lcd/ui_lcd_hy28.o
 .text.UiLcdHy28_LcdClear
                0x08039188       0x9c drivers/ui/lcd/ui_lcd_hy28.o
                0x08039188                UiLcdHy28_LcdClear
 .text.UiLcdHy28_WriteRAM_Prepare
                0x08039224       0x48 drivers/ui/lcd/ui_lcd_hy28.o
                0x08039224                UiLcdHy28_WriteRAM_Prepare
 .text.UiLcdHy28_DrawStraightLine
                0x0803926c       0xd0 drivers/ui/lcd/ui_lcd_hy28.o
                0x0803926c                UiLcdHy28_DrawStraightLine
 .text.UiLcdHy28_DrawHorizLineWithGrad
                0x0803933c       0xd0 drivers/ui/lcd/ui_lcd_hy28.o
                0x0803933c                UiLcdHy28_DrawHorizLineWithGrad
 .text.UiLcdHy28_DrawEmptyRect
                0x0803940c       0x7c drivers/ui/lcd/ui_lcd_hy28.o
                0x0803940c                UiLcdHy28_DrawEmptyRect
 .text.UiLcdHy28_DrawBottomButton
                0x08039488       0x5c drivers/ui/lcd/ui_lcd_hy28.o
                0x08039488                UiLcdHy28_DrawBottomButton
 .text.UiLcdHy28_DrawFullRect
                0x080394e4      0x10c drivers/ui/lcd/ui_lcd_hy28.o
                0x080394e4                UiLcdHy28_DrawFullRect
 .text.UiLcdHy28_OpenBulkWrite
                0x080395f0       0x6c drivers/ui/lcd/ui_lcd_hy28.o
                0x080395f0                UiLcdHy28_OpenBulkWrite
 .text.UiLcdHy28_BulkWrite
                0x0803965c       0x48 drivers/ui/lcd/ui_lcd_hy28.o
                0x0803965c                UiLcdHy28_BulkWrite
 .text.UiLcdHy28_CloseBulkWrite
                0x080396a4       0x60 drivers/ui/lcd/ui_lcd_hy28.o
                0x080396a4                UiLcdHy28_CloseBulkWrite
 .text.UiLcdHy28_DrawChar
                0x08039704      0x278 drivers/ui/lcd/ui_lcd_hy28.o
                0x08039704                UiLcdHy28_DrawChar
 .text.UiLcdHy28_PrintText
                0x0803997c       0xf0 drivers/ui/lcd/ui_lcd_hy28.o
                0x0803997c                UiLcdHy28_PrintText
 .text.UiLcdHy28_DrawSpectrum_Interleaved
                0x08039a6c      0x658 drivers/ui/lcd/ui_lcd_hy28.o
                0x08039a6c                UiLcdHy28_DrawSpectrum_Interleaved
 .text.UiLcdHy28_InitA
                0x0803a0c4      0x5d8 drivers/ui/lcd/ui_lcd_hy28.o
                0x0803a0c4                UiLcdHy28_InitA
 .text.UiLcdHy28_Test
                0x0803a69c        0xc drivers/ui/lcd/ui_lcd_hy28.o
                0x0803a69c                UiLcdHy28_Test
 .text.UiLcdHy28_Init
                0x0803a6a8       0xa4 drivers/ui/lcd/ui_lcd_hy28.o
                0x0803a6a8                UiLcdHy28_Init
 .text.UiLcdHy28_ShowStartUpScreen
                0x0803a74c      0x428 drivers/ui/lcd/ui_lcd_hy28.o
                0x0803a74c                UiLcdHy28_ShowStartUpScreen
 .text.mchf_hw_i2c2_init
                0x0803ab74       0x8c hardware/mchf_hw_i2c2.o
                0x0803ab74                mchf_hw_i2c2_init
 .text.mchf_hw_i2c2_WriteRegister
                0x0803ac00      0x168 hardware/mchf_hw_i2c2.o
                0x0803ac00                mchf_hw_i2c2_WriteRegister
 .text.Write_24Cxx
                0x0803ad68      0x180 hardware/mchf_hw_i2c2.o
                0x0803ad68                Write_24Cxx
 .text.Read_24Cxx
                0x0803aee8      0x1dc hardware/mchf_hw_i2c2.o
                0x0803aee8                Read_24Cxx
 .text.WaitSR1FlagsSet
                0x0803b0c4       0x44 hardware/mchf_hw_i2c.o
 .text.WaitLineIdle
                0x0803b108       0x3c hardware/mchf_hw_i2c.o
 .text.mchf_hw_i2c_init
                0x0803b144       0x8c hardware/mchf_hw_i2c.o
                0x0803b144                mchf_hw_i2c_init
 .text.mchf_hw_i2c_reset
                0x0803b1d0       0x50 hardware/mchf_hw_i2c.o
                0x0803b1d0                mchf_hw_i2c_reset
 .text.mchf_hw_i2c_WriteRegister
                0x0803b220      0x168 hardware/mchf_hw_i2c.o
                0x0803b220                mchf_hw_i2c_WriteRegister
 .text.mchf_hw_i2c_WriteBlock
                0x0803b388      0x180 hardware/mchf_hw_i2c.o
                0x0803b388                mchf_hw_i2c_WriteBlock
 .text.mchf_hw_i2c_ReadRegister
                0x0803b508      0x1fc hardware/mchf_hw_i2c.o
                0x0803b508                mchf_hw_i2c_ReadRegister
 .text.mchf_hw_i2c_ReadData
                0x0803b704      0x2cc hardware/mchf_hw_i2c.o
                0x0803b704                mchf_hw_i2c_ReadData
 .text.NVIC_SetPriority
                0x0803b9d0       0x54 hardware/mchf_board.o
 .text.SysTick_Config
                0x0803ba24       0x44 hardware/mchf_board.o
 .text.mchf_board_led_init
                0x0803ba68       0x40 hardware/mchf_board.o
 .text.mchf_board_debug_init
                0x0803baa8        0xc hardware/mchf_board.o
 .text.mchf_board_keypad_init
                0x0803bab4       0x4c hardware/mchf_board.o
 .text.mchf_board_ptt_init
                0x0803bb00       0x30 hardware/mchf_board.o
 .text.mchf_board_keyer_irq_init
                0x0803bb30       0xc8 hardware/mchf_board.o
 .text.mchf_board_power_button_irq_init
                0x0803bbf8       0x74 hardware/mchf_board.o
 .text.mchf_board_dac0_init
                0x0803bc6c       0x60 hardware/mchf_board.o
 .text.mchf_board_dac1_init
                0x0803bccc       0x60 hardware/mchf_board.o
 .text.mchf_board_adc1_init
                0x0803bd2c       0x9c hardware/mchf_board.o
 .text.mchf_board_adc2_init
                0x0803bdc8       0x9c hardware/mchf_board.o
 .text.mchf_board_adc3_init
                0x0803be64       0x9c hardware/mchf_board.o
 .text.mchf_board_power_down_init
                0x0803bf00       0x38 hardware/mchf_board.o
 .text.mchf_board_band_cntr_init
                0x0803bf38       0x48 hardware/mchf_board.o
 .text.mchf_board_set_system_tick_value
                0x0803bf80       0x30 hardware/mchf_board.o
 .text.mchf_board_green_led
                0x0803bfb0       0x44 hardware/mchf_board.o
                0x0803bfb0                mchf_board_green_led
 .text.mchf_board_power_off
                0x0803bff4      0x220 hardware/mchf_board.o
                0x0803bff4                mchf_board_power_off
 .text.mchf_board_init
                0x0803c214       0x78 hardware/mchf_board.o
                0x0803c214                mchf_board_init
 .text.mchf_board_post_init
                0x0803c28c       0x18 hardware/mchf_board.o
                0x0803c28c                mchf_board_post_init
 .text.Read_EEPROM
                0x0803c2a4       0x48 hardware/mchf_board.o
                0x0803c2a4                Read_EEPROM
 .text.Write_EEPROM
                0x0803c2ec       0x58 hardware/mchf_board.o
                0x0803c2ec                Write_EEPROM
 .text.Read_SerEEPROM
                0x0803c344       0x7c hardware/mchf_board.o
                0x0803c344                Read_SerEEPROM
 .text.Write_SerEEPROM
                0x0803c3c0       0x60 hardware/mchf_board.o
                0x0803c3c0                Write_SerEEPROM
 .text.copy_virt2ser
                0x0803c420       0x48 hardware/mchf_board.o
                0x0803c420                copy_virt2ser
 .text.verify_servirt
                0x0803c468       0x5c hardware/mchf_board.o
                0x0803c468                verify_servirt
 .text.SystemInit
                0x0803c4c4       0x6c cmsis_boot/system_stm32f4xx.o
                0x0803c4c4                SystemInit
 .text.SetSysClock
                0x0803c530      0x140 cmsis_boot/system_stm32f4xx.o
 .text.Default_Reset_Handler
                0x0803c670       0x5c cmsis_boot/startup/startup_stm32f4xx.o
                0x0803c670                Reset_Handler
                0x0803c670                Default_Reset_Handler
 .text.Default_Handler
                0x0803c6cc        0x8 cmsis_boot/startup/startup_stm32f4xx.o
                0x0803c6cc                RTC_Alarm_IRQHandler
                0x0803c6cc                HASH_RNG_IRQHandler
                0x0803c6cc                EXTI2_IRQHandler
                0x0803c6cc                TIM8_CC_IRQHandler
                0x0803c6cc                TIM1_CC_IRQHandler
                0x0803c6cc                DMA2_Stream5_IRQHandler
                0x0803c6cc                DMA1_Stream5_IRQHandler
                0x0803c6cc                PVD_IRQHandler
                0x0803c6cc                SDIO_IRQHandler
                0x0803c6cc                TAMP_STAMP_IRQHandler
                0x0803c6cc                PendSV_Handler
                0x0803c6cc                CAN2_RX1_IRQHandler
                0x0803c6cc                EXTI3_IRQHandler
                0x0803c6cc                TIM8_TRG_COM_TIM14_IRQHandler
                0x0803c6cc                TIM1_UP_TIM10_IRQHandler
                0x0803c6cc                TIM8_UP_TIM13_IRQHandler
                0x0803c6cc                I2C3_ER_IRQHandler
                0x0803c6cc                I2C2_EV_IRQHandler
                0x0803c6cc                CAN1_RX0_IRQHandler
                0x0803c6cc                FPU_IRQHandler
                0x0803c6cc                OTG_HS_WKUP_IRQHandler
                0x0803c6cc                CAN2_SCE_IRQHandler
                0x0803c6cc                DMA2_Stream2_IRQHandler
                0x0803c6cc                SPI1_IRQHandler
                0x0803c6cc                TIM6_DAC_IRQHandler
                0x0803c6cc                TIM1_BRK_TIM9_IRQHandler
                0x0803c6cc                DCMI_IRQHandler
                0x0803c6cc                CAN2_RX0_IRQHandler
                0x0803c6cc                DMA2_Stream3_IRQHandler
                0x0803c6cc                USART6_IRQHandler
                0x0803c6cc                USART3_IRQHandler
                0x0803c6cc                CRYP_IRQHandler
                0x0803c6cc                CAN1_RX1_IRQHandler
                0x0803c6cc                UART5_IRQHandler
                0x0803c6cc                DMA2_Stream0_IRQHandler
                0x0803c6cc                TIM4_IRQHandler
                0x0803c6cc                I2C1_EV_IRQHandler
                0x0803c6cc                DMA1_Stream6_IRQHandler
                0x0803c6cc                DMA1_Stream1_IRQHandler
                0x0803c6cc                UART4_IRQHandler
                0x0803c6cc                TIM3_IRQHandler
                0x0803c6cc                RCC_IRQHandler
                0x0803c6cc                TIM8_BRK_TIM12_IRQHandler
                0x0803c6cc                ADC_IRQHandler
                0x0803c6cc                DMA1_Stream7_IRQHandler
                0x0803c6cc                TIM7_IRQHandler
                0x0803c6cc                CAN2_TX_IRQHandler
                0x0803c6cc                TIM5_IRQHandler
                0x0803c6cc                DMA2_Stream7_IRQHandler
                0x0803c6cc                I2C3_EV_IRQHandler
                0x0803c6cc                EXTI9_5_IRQHandler
                0x0803c6cc                RTC_WKUP_IRQHandler
                0x0803c6cc                ETH_WKUP_IRQHandler
                0x0803c6cc                SPI2_IRQHandler
                0x0803c6cc                OTG_HS_EP1_IN_IRQHandler
                0x0803c6cc                DMA1_Stream0_IRQHandler
                0x0803c6cc                CAN1_TX_IRQHandler
                0x0803c6cc                EXTI4_IRQHandler
                0x0803c6cc                FSMC_IRQHandler
                0x0803c6cc                ETH_IRQHandler
                0x0803c6cc                OTG_HS_EP1_OUT_IRQHandler
                0x0803c6cc                WWDG_IRQHandler
                0x0803c6cc                OTG_FS_WKUP_IRQHandler
                0x0803c6cc                TIM1_TRG_COM_TIM11_IRQHandler
                0x0803c6cc                USART2_IRQHandler
                0x0803c6cc                I2C2_ER_IRQHandler
                0x0803c6cc                DMA2_Stream1_IRQHandler
                0x0803c6cc                CAN1_SCE_IRQHandler
                0x0803c6cc                FLASH_IRQHandler
                0x0803c6cc                DMA2_Stream4_IRQHandler
                0x0803c6cc                USART1_IRQHandler
                0x0803c6cc                SPI3_IRQHandler
                0x0803c6cc                DMA1_Stream4_IRQHandler
                0x0803c6cc                I2C1_ER_IRQHandler
                0x0803c6cc                DMA2_Stream6_IRQHandler
                0x0803c6cc                DMA1_Stream3_IRQHandler
 .text.EE_InitA
                0x0803c6d4      0x2a4 misc/v_eprom/eeprom.o
                0x0803c6d4                EE_InitA
 .text.EE_Init  0x0803c978       0x20 misc/v_eprom/eeprom.o
                0x0803c978                EE_Init
 .text.EE_ReadVariable
                0x0803c998       0x94 misc/v_eprom/eeprom.o
                0x0803c998                EE_ReadVariable
 .text.EE_WriteVariable
                0x0803ca2c       0x4c misc/v_eprom/eeprom.o
                0x0803ca2c                EE_WriteVariable
 .text.EE_Format
                0x0803ca78       0x50 misc/v_eprom/eeprom.o
 .text.EE_FindValidPage
                0x0803cac8       0x8c misc/v_eprom/eeprom.o
 .text.EE_VerifyPageFullWriteVariable
                0x0803cb54       0xac misc/v_eprom/eeprom.o
 .text.EE_PageTransfer
                0x0803cc00      0x138 misc/v_eprom/eeprom.o
 .text.PrintChar
                0x0803cd38       0x14 stdio/printf.o
                0x0803cd38                PrintChar
 .text.PutChar  0x0803cd4c       0x20 stdio/printf.o
                0x0803cd4c                PutChar
 .text.PutString
                0x0803cd6c       0x3c stdio/printf.o
                0x0803cd6c                PutString
 .text.PutUnsignedInt
                0x0803cda8       0xa0 stdio/printf.o
                0x0803cda8                PutUnsignedInt
 .text.PutSignedInt
                0x0803ce48       0xfc stdio/printf.o
                0x0803ce48                PutSignedInt
 .text.PutHexa  0x0803cf44       0xd4 stdio/printf.o
                0x0803cf44                PutHexa
 .text.vsnprintf
                0x0803d018      0x254 stdio/printf.o
                0x0803d018                vsnprintf
 .text.vsprintf
                0x0803d26c       0x24 stdio/printf.o
                0x0803d26c                vsprintf
 .text.vfprintf
                0x0803d290       0x80 stdio/printf.o
                0x0803d290                vfprintf
 .text.vprintf  0x0803d310       0x28 stdio/printf.o
                0x0803d310                vprintf
 .text.printf   0x0803d338       0x28 stdio/printf.o
                0x0803d338                printf
 .text.sprintf  0x0803d360       0x2c stdio/printf.o
                0x0803d360                sprintf
 .text.fputc    0x0803d38c       0x40 stdio/printf.o
                0x0803d38c                fputc
 .text.fputs    0x0803d3cc       0x48 stdio/printf.o
                0x0803d3cc                fputs
 .text.arm_fill_q15
                0x0803d414       0xe4 libs/libarm_cortexM4lf_math.a(arm_fill_q15.o)
                0x0803d414                arm_fill_q15
 .text.arm_fill_f32
                0x0803d4f8      0x108 libs/libarm_cortexM4lf_math.a(arm_fill_f32.o)
                0x0803d4f8                arm_fill_f32
 .text.arm_copy_q15
                0x0803d600      0x21c libs/libarm_cortexM4lf_math.a(arm_copy_q15.o)
                0x0803d600                arm_copy_q15
 .text.arm_copy_f32
                0x0803d81c      0x158 libs/libarm_cortexM4lf_math.a(arm_copy_f32.o)
                0x0803d81c                arm_copy_f32
 .text.arm_min_q15
                0x0803d974       0xe4 libs/libarm_cortexM4lf_math.a(arm_min_q15.o)
                0x0803d974                arm_min_q15
 .text.arm_min_f32
                0x0803da58      0x15c libs/libarm_cortexM4lf_math.a(arm_min_f32.o)
                0x0803da58                arm_min_f32
 .text.arm_mean_q15
                0x0803dbb4      0x194 libs/libarm_cortexM4lf_math.a(arm_mean_q15.o)
                0x0803dbb4                arm_mean_q15
 .text.arm_mean_f32
                0x0803dd48      0x1c8 libs/libarm_cortexM4lf_math.a(arm_mean_f32.o)
                0x0803dd48                arm_mean_f32
 .text.arm_max_q15
                0x0803df10       0xe4 libs/libarm_cortexM4lf_math.a(arm_max_q15.o)
                0x0803df10                arm_max_q15
 .text.arm_max_f32
                0x0803dff4      0x15c libs/libarm_cortexM4lf_math.a(arm_max_f32.o)
                0x0803dff4                arm_max_f32
 .text.arm_rfft_init_f32
                0x0803e150       0x78 libs/libarm_cortexM4lf_math.a(arm_rfft_init_f32.o)
                0x0803e150                arm_rfft_init_f32
 .text.arm_split_rfft_f32
                0x0803e1c8      0x218 libs/libarm_cortexM4lf_math.a(arm_rfft_f32.o)
                0x0803e1c8                arm_split_rfft_f32
 .text.arm_split_rifft_f32
                0x0803e3e0      0x160 libs/libarm_cortexM4lf_math.a(arm_rfft_f32.o)
                0x0803e3e0                arm_split_rifft_f32
 .text.arm_rfft_f32
                0x0803e540       0x88 libs/libarm_cortexM4lf_math.a(arm_rfft_f32.o)
                0x0803e540                arm_rfft_f32
 .text.arm_cfft_radix4_init_f32
                0x0803e5c8       0x94 libs/libarm_cortexM4lf_math.a(arm_cfft_radix4_init_f32.o)
                0x0803e5c8                arm_cfft_radix4_init_f32
 .text.arm_radix4_butterfly_f32
                0x0803e65c      0x3b0 libs/libarm_cortexM4lf_math.a(arm_cfft_radix4_f32.o)
                0x0803e65c                arm_radix4_butterfly_f32
 .text.arm_radix4_butterfly_inverse_f32
                0x0803ea0c      0x3d0 libs/libarm_cortexM4lf_math.a(arm_cfft_radix4_f32.o)
                0x0803ea0c                arm_radix4_butterfly_inverse_f32
 .text.arm_bitreversal_f32
                0x0803eddc       0xfc libs/libarm_cortexM4lf_math.a(arm_cfft_radix4_f32.o)
                0x0803eddc                arm_bitreversal_f32
 .text.arm_lms_norm_init_f32
                0x0803eed8       0x38 libs/libarm_cortexM4lf_math.a(arm_lms_norm_init_f32.o)
                0x0803eed8                arm_lms_norm_init_f32
 .text.arm_lms_norm_f32
                0x0803ef10      0x620 libs/libarm_cortexM4lf_math.a(arm_lms_norm_f32.o)
                0x0803ef10                arm_lms_norm_f32
 .text.arm_iir_lattice_f32
                0x0803f530      0x3e0 libs/libarm_cortexM4lf_math.a(arm_iir_lattice_f32.o)
                0x0803f530                arm_iir_lattice_f32
 .text.arm_fir_interpolate_f32
                0x0803f910      0x44c libs/libarm_cortexM4lf_math.a(arm_fir_interpolate_f32.o)
                0x0803f910                arm_fir_interpolate_f32
 .text.arm_fir_init_f32
                0x0803fd5c       0x24 libs/libarm_cortexM4lf_math.a(arm_fir_init_f32.o)
                0x0803fd5c                arm_fir_init_f32
 .text.arm_fir_f32
                0x0803fd80      0x498 libs/libarm_cortexM4lf_math.a(arm_fir_f32.o)
                0x0803fd80                arm_fir_f32
 .text.arm_fir_decimate_f32
                0x08040218      0x3e0 libs/libarm_cortexM4lf_math.a(arm_fir_decimate_f32.o)
                0x08040218                arm_fir_decimate_f32
 .text.arm_cmplx_mag_f32
                0x080405f8      0x3b8 libs/libarm_cortexM4lf_math.a(arm_cmplx_mag_f32.o)
                0x080405f8                arm_cmplx_mag_f32
 .text.arm_sin_f32
                0x080409b0       0xd0 libs/libarm_cortexM4lf_math.a(arm_sin_f32.o)
                0x080409b0                arm_sin_f32
 .text.arm_cos_f32
                0x08040a80       0xd0 libs/libarm_cortexM4lf_math.a(arm_cos_f32.o)
                0x08040a80                arm_cos_f32
 .text.arm_sub_f32
                0x08040b50      0x214 libs/libarm_cortexM4lf_math.a(arm_sub_f32.o)
                0x08040b50                arm_sub_f32
 .text.arm_scale_f32
                0x08040d64      0x274 libs/libarm_cortexM4lf_math.a(arm_scale_f32.o)
                0x08040d64                arm_scale_f32
 .text.arm_offset_f32
                0x08040fd8      0x274 libs/libarm_cortexM4lf_math.a(arm_offset_f32.o)
                0x08040fd8                arm_offset_f32
 .text.arm_negate_f32
                0x0804124c      0x268 libs/libarm_cortexM4lf_math.a(arm_negate_f32.o)
                0x0804124c                arm_negate_f32
 .text.arm_mult_f32
                0x080414b4      0x214 libs/libarm_cortexM4lf_math.a(arm_mult_f32.o)
                0x080414b4                arm_mult_f32
 .text.arm_add_f32
                0x080416c8      0x214 libs/libarm_cortexM4lf_math.a(arm_add_f32.o)
                0x080416c8                arm_add_f32
 *fill*         0x080418dc        0x4 
 .text.cos      0x080418e0       0xb0 libs/libm.a(lib_a-s_cos.o)
                0x080418e0                cos
 .text.pow10    0x08041990       0x18 libs/libm.a(lib_a-s_pow10.o)
                0x08041990                pow10
 .text.sin      0x080419a8       0xb8 libs/libm.a(lib_a-s_sin.o)
                0x080419a8                sin
 .text.ceilf    0x08041a60       0x94 libs/libm.a(lib_a-sf_ceil.o)
                0x08041a60                ceilf
 .text.floorf   0x08041af4       0x9c libs/libm.a(lib_a-sf_floor.o)
                0x08041af4                floorf
 .text.roundf   0x08041b90       0x5c libs/libm.a(lib_a-sf_round.o)
                0x08041b90                roundf
 .text.truncf   0x08041bec       0x34 libs/libm.a(lib_a-sf_trunc.o)
                0x08041bec                truncf
 .text.log10    0x08041c20      0x10c libs/libm.a(lib_a-w_log10.o)
                0x08041c20                log10
 .text.pow      0x08041d2c      0x370 libs/libm.a(lib_a-w_pow.o)
                0x08041d2c                pow
 .text.sqrt     0x0804209c       0xbc libs/libm.a(lib_a-w_sqrt.o)
                0x0804209c                sqrt
 .text.log10f   0x08042158       0xf8 libs/libm.a(lib_a-wf_log10.o)
                0x08042158                log10f
 .text.powf     0x08042250      0x39c libs/libm.a(lib_a-wf_pow.o)
                0x08042250                powf
 .text.sincosf  0x080425ec       0x28 libs/libm.a(lib_a-wf_sincos.o)
                0x080425ec                sincosf
 .text.sqrtf    0x08042614       0xb4 libs/libm.a(lib_a-wf_sqrt.o)
                0x08042614                sqrtf
 .text.__ieee754_log10
                0x080426c8      0x138 libs/libm.a(lib_a-e_log10.o)
                0x080426c8                __ieee754_log10
 .text.__ieee754_pow
                0x08042800      0xb90 libs/libm.a(lib_a-e_pow.o)
                0x08042800                __ieee754_pow
 .text.__ieee754_rem_pio2
                0x08043390      0x478 libs/libm.a(lib_a-e_rem_pio2.o)
                0x08043390                __ieee754_rem_pio2
 .text.__ieee754_sqrt
                0x08043808      0x1c4 libs/libm.a(lib_a-e_sqrt.o)
                0x08043808                __ieee754_sqrt
 .text.__ieee754_log10f
                0x080439cc       0xbc libs/libm.a(lib_a-ef_log10.o)
                0x080439cc                __ieee754_log10f
 .text.__ieee754_powf
                0x08043a88      0x600 libs/libm.a(lib_a-ef_pow.o)
                0x08043a88                __ieee754_powf
 .text.__ieee754_sqrtf
                0x08044088       0x9c libs/libm.a(lib_a-ef_sqrt.o)
                0x08044088                __ieee754_sqrtf
 *fill*         0x08044124        0x4 
 .text.__kernel_cos
                0x08044128      0x270 libs/libm.a(lib_a-k_cos.o)
                0x08044128                __kernel_cos
 .text.__kernel_rem_pio2
                0x08044398      0x808 libs/libm.a(lib_a-k_rem_pio2.o)
                0x08044398                __kernel_rem_pio2
 .text.__kernel_sin
                0x08044ba0      0x178 libs/libm.a(lib_a-k_sin.o)
                0x08044ba0                __kernel_sin
 .text.fabs     0x08044d18       0x14 libs/libm.a(lib_a-s_fabs.o)
                0x08044d18                fabs
 .text.finite   0x08044d2c       0x14 libs/libm.a(lib_a-s_finite.o)
                0x08044d2c                finite
 .text.floor    0x08044d40      0x150 libs/libm.a(lib_a-s_floor.o)
                0x08044d40                floor
 .text.__fpclassifyd
                0x08044e90       0x70 libs/libm.a(lib_a-s_fpclassify.o)
                0x08044e90                __fpclassifyd
 .text.matherr  0x08044f00        0x4 libs/libm.a(lib_a-s_matherr.o)
                0x08044f00                matherr
 *fill*         0x08044f04        0x4 
 .text.nan      0x08044f08       0x10 libs/libm.a(lib_a-s_nan.o)
                0x08044f08                nan
 .text.rint     0x08044f18      0x124 libs/libm.a(lib_a-s_rint.o)
                0x08044f18                rint
 *fill*         0x0804503c        0x4 
 .text.scalbn   0x08045040      0x120 libs/libm.a(lib_a-s_scalbn.o)
                0x08045040                scalbn
 .text.cosf     0x08045160       0x74 libs/libm.a(lib_a-sf_cos.o)
                0x08045160                cosf
 .text.fabsf    0x080451d4       0x10 libs/libm.a(lib_a-sf_fabs.o)
                0x080451d4                fabsf
 .text.finitef  0x080451e4       0x14 libs/libm.a(lib_a-sf_finite.o)
                0x080451e4                finitef
 .text.__fpclassifyf
                0x080451f8       0x5c libs/libm.a(lib_a-sf_fpclassify.o)
                0x080451f8                __fpclassifyf
 .text.nanf     0x08045254        0xc libs/libm.a(lib_a-sf_nan.o)
                0x08045254                nanf
 .text.scalbnf  0x08045260       0xcc libs/libm.a(lib_a-sf_scalbn.o)
                0x08045260                scalbnf
 .text.sinf     0x0804532c       0x78 libs/libm.a(lib_a-sf_sin.o)
                0x0804532c                sinf
 *fill*         0x080453a4        0x4 
 .text.__ieee754_log
                0x080453a8      0x428 libs/libm.a(lib_a-e_log.o)
                0x080453a8                __ieee754_log
 .text.__ieee754_logf
                0x080457d0      0x204 libs/libm.a(lib_a-ef_log.o)
                0x080457d0                __ieee754_logf
 .text.__ieee754_rem_pio2f
                0x080459d4      0x2a4 libs/libm.a(lib_a-ef_rem_pio2.o)
                0x080459d4                __ieee754_rem_pio2f
 .text.__kernel_cosf
                0x08045c78      0x104 libs/libm.a(lib_a-kf_cos.o)
                0x08045c78                __kernel_cosf
 .text.__kernel_rem_pio2f
                0x08045d7c      0x620 libs/libm.a(lib_a-kf_rem_pio2.o)
                0x08045d7c                __kernel_rem_pio2f
 .text.__kernel_sinf
                0x0804639c       0x8c libs/libm.a(lib_a-kf_sin.o)
                0x0804639c                __kernel_sinf
 .text.copysign
                0x08046428       0x24 libs/libm.a(lib_a-s_copysign.o)
                0x08046428                copysign
 .text.copysignf
                0x0804644c       0x18 libs/libm.a(lib_a-sf_copysign.o)
                0x0804644c                copysignf
 .text.atexit   0x08046464        0xc /usr/lib/gcc/arm-none-eabi/4.8/../../../arm-none-eabi/lib/armv7e-m/fpu/libg.a(lib_a-atexit.o)
                0x08046464                atexit
 .text.__errno  0x08046470        0xc /usr/lib/gcc/arm-none-eabi/4.8/../../../arm-none-eabi/lib/armv7e-m/fpu/libg.a(lib_a-errno.o)
                0x08046470                __errno
 .text.__libc_fini_array
                0x0804647c       0x30 /usr/lib/gcc/arm-none-eabi/4.8/../../../arm-none-eabi/lib/armv7e-m/fpu/libg.a(lib_a-fini.o)
                0x0804647c                __libc_fini_array
 .text.memcmp   0x080464ac       0x68 /usr/lib/gcc/arm-none-eabi/4.8/../../../arm-none-eabi/lib/armv7e-m/fpu/libg.a(lib_a-memcmp.o)
                0x080464ac                memcmp
 .text.memset   0x08046514       0x94 /usr/lib/gcc/arm-none-eabi/4.8/../../../arm-none-eabi/lib/armv7e-m/fpu/libg.a(lib_a-memset.o)
                0x08046514                memset
 .text.strlen   0x080465a8       0x5c /usr/lib/gcc/arm-none-eabi/4.8/../../../arm-none-eabi/lib/armv7e-m/fpu/libg.a(lib_a-strlen.o)
                0x080465a8                strlen
 .text.__register_exitproc
                0x08046604       0xa8 /usr/lib/gcc/arm-none-eabi/4.8/../../../arm-none-eabi/lib/armv7e-m/fpu/libg.a(lib_a-__atexit.o)
                0x08046604                __register_exitproc
 .text.startup.register_fini
                0x080466ac       0x14 /usr/lib/gcc/arm-none-eabi/4.8/../../../arm-none-eabi/lib/armv7e-m/fpu/libg.a(lib_a-__call_atexit.o)
 .text          0x080466c0      0x370 /usr/lib/gcc/arm-none-eabi/4.8/armv7e-m/fpu/libgcc.a(_arm_addsubdf3.o)
                0x080466c0                __aeabi_drsub
                0x080466c8                __aeabi_dsub
                0x080466c8                __subdf3
                0x080466cc                __adddf3
                0x080466cc                __aeabi_dadd
                0x08046944                __aeabi_ui2d
                0x08046944                __floatunsidf
                0x08046964                __floatsidf
                0x08046964                __aeabi_i2d
                0x08046988                __extendsfdf2
                0x08046988                __aeabi_f2d
                0x080469c4                __aeabi_ul2d
                0x080469c4                __floatundidf
                0x080469d4                __floatdidf
                0x080469d4                __aeabi_l2d
 .text          0x08046a30      0x424 /usr/lib/gcc/arm-none-eabi/4.8/armv7e-m/fpu/libgcc.a(_arm_muldivdf3.o)
                0x08046a30                __aeabi_dmul
                0x08046a30                __muldf3
                0x08046c84                __aeabi_ddiv
                0x08046c84                __divdf3
 .text          0x08046e54      0x110 /usr/lib/gcc/arm-none-eabi/4.8/armv7e-m/fpu/libgcc.a(_arm_cmpdf2.o)
                0x08046e54                __gtdf2
                0x08046e54                __gedf2
                0x08046e5c                __ltdf2
                0x08046e5c                __ledf2
                0x08046e64                __cmpdf2
                0x08046e64                __eqdf2
                0x08046e64                __nedf2
                0x08046ee0                __aeabi_cdrcmple
                0x08046ef0                __aeabi_cdcmple
                0x08046ef0                __aeabi_cdcmpeq
                0x08046f00                __aeabi_dcmpeq
                0x08046f14                __aeabi_dcmplt
                0x08046f28                __aeabi_dcmple
                0x08046f3c                __aeabi_dcmpge
                0x08046f50                __aeabi_dcmpgt
 .text          0x08046f64       0x50 /usr/lib/gcc/arm-none-eabi/4.8/armv7e-m/fpu/libgcc.a(_arm_fixdfsi.o)
                0x08046f64                __fixdfsi
                0x08046f64                __aeabi_d2iz
 .text          0x08046fb4       0xa0 /usr/lib/gcc/arm-none-eabi/4.8/armv7e-m/fpu/libgcc.a(_arm_truncdfsf2.o)
                0x08046fb4                __aeabi_d2f
                0x08046fb4                __truncdfsf2
 *(.init)
 .init          0x08047054        0x4 /usr/lib/gcc/arm-none-eabi/4.8/armv7e-m/fpu/crti.o
                0x08047054                _init
 .init          0x08047058        0x8 /usr/lib/gcc/arm-none-eabi/4.8/armv7e-m/fpu/crtn.o
 *(.fini)
 .fini          0x08047060        0x4 /usr/lib/gcc/arm-none-eabi/4.8/armv7e-m/fpu/crti.o
                0x08047060                _fini
 .fini          0x08047064        0x8 /usr/lib/gcc/arm-none-eabi/4.8/armv7e-m/fpu/crtn.o
 *crtbegin.o(.ctors)
 *crtbegin?.o(.ctors)
 *(EXCLUDE_FILE(*crtend.o *crtend?.o) .ctors)
 *(SORT(.ctors.*))
 *(.ctors)
 *crtbegin.o(.dtors)
 *crtbegin?.o(.dtors)
 *(EXCLUDE_FILE(*crtend.o *crtend?.o) .dtors)
 *(SORT(.dtors.*))
 *(.dtors)
 *(.rodata*)
 .rodata        0x0804706c      0x4bc main.o
                0x0804706c                VirtAddVarTab
 .rodata        0x08047528       0x10 cmsis_lib/source/stm32f4xx_rcc.o
                0x08047528                APBAHBPrescTable
 .rodata        0x08047538       0x30 drivers/cat/cat_driver.o
 .rodata        0x08047568       0x98 drivers/cat/usb/usbd_desc.o
 .rodata        0x08047600        0xc drivers/cat/usb/usbd_cdc_vcp.o
 .rodata        0x0804760c       0x80 drivers/audio/cw/cw_gen.o
                0x0804760c                sm_table
 .rodata        0x0804768c     0x1218 drivers/audio/audio_driver.o
                0x0804768c                FM_DDS_TABLE
                0x08047e8c                IIR_300hz_numStages
                0x08047e90                IIR_300hz_750_pkCoeffs
                0x08047eb8                IIR_300hz_750_pvCoeffs
                0x08047ee4                IIR_300hz_800_pkCoeffs
                0x08047f0c                IIR_300hz_800_pvCoeffs
                0x08047f38                IIR_300hz_850_pkCoeffs
                0x08047f60                IIR_300hz_850_pvCoeffs
                0x08047f8c                IIR_300hz_900_pkCoeffs
                0x08047fb4                IIR_300hz_900_pvCoeffs
                0x08047fe0                IIR_300hz_950_pkCoeffs
                0x08048008                IIR_300hz_950_pvCoeffs
                0x08048034                IIR_300hz_700_pkCoeffs
                0x0804805c                IIR_300hz_700_pvCoeffs
                0x08048088                IIR_300hz_650_pkCoeffs
                0x080480b0                IIR_300hz_650_pvCoeffs
                0x080480dc                IIR_300hz_600_pkCoeffs
                0x08048104                IIR_300hz_600_pvCoeffs
                0x08048130                IIR_300hz_550_pkCoeffs
                0x08048158                IIR_300hz_550_pvCoeffs
                0x08048184                IIR_300hz_500_pkCoeffs
                0x080481ac                IIR_300hz_500_pvCoeffs
                0x080481d8                IIR_500hz_numStages
                0x080481dc                IIR_500hz_750_pkCoeffs
                0x08048204                IIR_500hz_750_pvCoeffs
                0x08048230                IIR_500hz_850_pkCoeffs
                0x08048258                IIR_500hz_850_pvCoeffs
                0x08048284                IIR_500hz_950_pkCoeffs
                0x080482ac                IIR_500hz_950_pvCoeffs
                0x080482d8                IIR_500hz_650_pkCoeffs
                0x08048300                IIR_500hz_650_pvCoeffs
                0x0804832c                IIR_500hz_550_pkCoeffs
                0x08048354                IIR_500hz_550_pvCoeffs
                0x08048380                IIR_1k8_numStages
                0x08048384                IIR_1k8_1k425_pkCoeffs
                0x080483ac                IIR_1k8_1k425_pvCoeffs
                0x080483d8                IIR_1k8_1k275_pkCoeffs
                0x08048400                IIR_1k8_1k275_pvCoeffs
                0x0804842c                IIR_1k8_1k125_pkCoeffs
                0x08048454                IIR_1k8_1k125_pvCoeffs
                0x08048480                IIR_1k8_1k575_pkCoeffs
                0x080484a8                IIR_1k8_1k575_pvCoeffs
                0x080484d4                IIR_1k8_1k725_pkCoeffs
                0x080484fc                IIR_1k8_1k725_pvCoeffs
                0x08048528                IIR_2k3_numStages
                0x0804852c                IIR_2k3_1k412_pkCoeffs
                0x08048554                IIR_2k3_1k412_pvCoeffs
                0x08048580                IIR_2k3_1k275_pkCoeffs
                0x080485a8                IIR_2k3_1k275_pvCoeffs
                0x080485d4                IIR_2k3_1k562_pkCoeffs
                0x080485fc                IIR_2k3_1k562_pvCoeffs
                0x08048628                IIR_2k3_1k712_pkCoeffs
                0x08048650                IIR_2k3_1k712_pvCoeffs
                0x0804867c                IIR_3k6_numStages
                0x08048680                IIR_3k6_pkCoeffs
                0x080486a8                IIR_3k6_pvCoeffs
                0x080486d4                IIR_10k_numStages
                0x080486d8                IIR_10k_pkCoeffs
                0x080486f8                IIR_10k_pvCoeffs
                0x0804871c                IIR_15k_hpf_numStages
                0x08048720                IIR_15k_hpf_pkCoeffs
                0x08048738                IIR_15k_hpf_pvCoeffs
                0x08048754                IIR_TX_2k7_numStages
                0x08048758                IIR_TX_2k7_pkCoeffs
                0x08048780                IIR_TX_2k7_pvCoeffs
                0x080487ac                IIR_TX_2k7_FM_numStages
                0x080487b0                IIR_TX_2k7_FM_pkCoeffs
                0x080487d8                IIR_TX_2k7_FM_pvCoeffs
                0x08048804                FirRxDecimate
                0x08048814                FirRxDecimateMinLPF
                0x08048824                FirRxInterpolate
                0x08048864                FirRxInterpolate10KHZ
 .rodata        0x080488a4      0x800 drivers/audio/softdds/softdds.o
                0x080488a4                DDS_TABLE
 .rodata        0x080490a4       0x4c drivers/ui/oscillator/ui_si570.o
                0x080490a4                hs_div
                0x080490ac                fdco_max
                0x080490b0                fdco_min
 .rodata        0x080490f0     0x12f0 drivers/ui/ui_menu.o
 .rodata        0x0804a3e0     0x3690 drivers/ui/ui_driver.o
                0x0804a3e0                waterfall_grey
                0x0804a464                waterfall_grey_inverse
                0x0804a4e8                waterfall_cold_hot
                0x0804a56c                waterfall_blue
                0x0804a5f0                old_waterfall_cold_hot
                0x0804a674                waterfall_rainbow
                0x0804a6f8                old_waterfall_rainbow
                0x0804a77c                fm_subaudible_tone_table
                0x0804a860                q_rx_10k_coeffs
                0x0804a9c4                q_rx_10k_coeffs_minus
                0x0804ab28                q_rx_10k_coeffs_plus
                0x0804ac8c                i_rx_10k_coeffs
                0x0804adf0                q_rx_7k5_coeffs
                0x0804af54                q_rx_7k5_coeffs_minus
                0x0804b0b8                q_rx_7k5_coeffs_plus
                0x0804b21c                i_rx_7k5_coeffs
                0x0804b380                q_rx_6k_coeffs
                0x0804b4e4                q_rx_6k_coeffs_minus
                0x0804b648                q_rx_6k_coeffs_plus
                0x0804b7ac                i_rx_6k_coeffs
                0x0804b910                q_rx_5k_coeffs
                0x0804ba74                q_rx_5k_coeffs_minus
                0x0804bbd8                q_rx_5k_coeffs_plus
                0x0804bd3c                i_rx_5k_coeffs
                0x0804bea0                q_rx_3k6_coeffs
                0x0804c004                q_rx_3k6_coeffs_minus
                0x0804c168                q_rx_3k6_coeffs_plus
                0x0804c2cc                i_rx_3k6_coeffs
                0x0804c430                q_tx_coeffs
                0x0804c594                q_tx_coeffs_minus
                0x0804c6f8                q_tx_coeffs_plus
                0x0804c85c                i_tx_coeffs
                0x0804c9c0                iq_rx_am_10k_coeffs
                0x0804cb24                iq_rx_am_7k5_coeffs
                0x0804cc88                iq_rx_am_6k_coeffs
                0x0804cdec                iq_rx_am_5k_coeffs
                0x0804cf50                iq_rx_am_3k6_coeffs
                0x0804d0b4                iq_rx_am_2k3_coeffs
                0x0804d218                tune_steps
                0x0804d238                tune_bands
                0x0804d25c                size_bands
                0x0804d280                bm
                0x0804d300                S_Meter_Cal
 .rodata        0x0804da70      0x21c drivers/ui/lcd/ui_lcd_hy28.o
 .rodata        0x0804dc8c     0x3ef8 drivers/ui/lcd/ui_lcd_hy28_fonts.o
                0x0804dc8c                GL_ASCII16x24_Table
                0x0804ee5c                GL_ASCII12x12_Table
                0x0804f75c                GL_ASCII8x12_Table
                0x0805005c                GL_ASCII8x12_bold_Table
                0x0805155c                GL_ASCII8x8_Table
                0x08051b5c                GL_Font16x24
                0x08051b64                GL_Font12x12
                0x08051b6c                GL_Font8x12
                0x08051b74                GL_Font8x12_bold
                0x08051b7c                GL_Font8x8
 .rodata        0x08051b84       0xa8 hardware/mchf_board.o
 .rodata        0x08051c2c       0x24 stdio/printf.o
 .rodata        0x08051c50     0x4000 libs/libarm_cortexM4lf_math.a(arm_rfft_init_f32.o)
 .rodata        0x08055c50     0x2000 libs/libarm_cortexM4lf_math.a(arm_cfft_radix4_init_f32.o)
 .rodata        0x08057c50      0x40c libs/libarm_cortexM4lf_math.a(arm_sin_f32.o)
 .rodata        0x0805805c      0x40c libs/libarm_cortexM4lf_math.a(arm_cos_f32.o)
 .rodata        0x08058468      0x380 libs/libarm_cortexM4lf_math.a(arm_common_tables.o)
                0x08058468                armRecipTableQ31
                0x08058568                armRecipTableQ15
                0x080585e8                armBitRevTable
 .rodata.str1.4
                0x080587e8        0x6 libs/libm.a(lib_a-w_log10.o)
                                  0xc (size before relaxing)
 *fill*         0x080587ee        0x2 
 .rodata.str1.4
                0x080587f0        0x4 libs/libm.a(lib_a-w_pow.o)
 .rodata.str1.4
                0x080587f4        0x5 libs/libm.a(lib_a-w_sqrt.o)
                                  0x8 (size before relaxing)
 *fill*         0x080587f9        0x3 
 .rodata.str1.4
                0x080587fc        0x7 libs/libm.a(lib_a-wf_log10.o)
                                  0xc (size before relaxing)
 *fill*         0x08058803        0x1 
 .rodata.str1.4
                0x08058804        0x5 libs/libm.a(lib_a-wf_pow.o)
                                  0x8 (size before relaxing)
 *fill*         0x08058809        0x3 
 .rodata.str1.4
                0x0805880c        0x6 libs/libm.a(lib_a-wf_sqrt.o)
                                  0x8 (size before relaxing)
 *fill*         0x08058812        0x6 
 .rodata.dp_h   0x08058818       0x10 libs/libm.a(lib_a-e_pow.o)
 .rodata.dp_l   0x08058828       0x10 libs/libm.a(lib_a-e_pow.o)
 .rodata.bp     0x08058838       0x10 libs/libm.a(lib_a-e_pow.o)
 .rodata.str1.4
                0x08058848        0x4 libs/libm.a(lib_a-e_pow.o)
 .rodata.npio2_hw
                0x08058848       0x80 libs/libm.a(lib_a-e_rem_pio2.o)
 .rodata.two_over_pi
                0x080588c8      0x108 libs/libm.a(lib_a-e_rem_pio2.o)
 .rodata.dp_h   0x080589d0        0x8 libs/libm.a(lib_a-ef_pow.o)
 .rodata.dp_l   0x080589d8        0x8 libs/libm.a(lib_a-ef_pow.o)
 .rodata.bp     0x080589e0        0x8 libs/libm.a(lib_a-ef_pow.o)
 .rodata.str1.4
                0x080589e8        0x4 libs/libm.a(lib_a-ef_pow.o)
 .rodata.init_jk
                0x080589e8       0x10 libs/libm.a(lib_a-k_rem_pio2.o)
 .rodata.PIo2   0x080589f8       0x40 libs/libm.a(lib_a-k_rem_pio2.o)
 .rodata.TWO52  0x08058a38       0x10 libs/libm.a(lib_a-s_rint.o)
 .rodata.npio2_hw
                0x08058a48       0x80 libs/libm.a(lib_a-ef_rem_pio2.o)
 .rodata.two_over_pi
                0x08058ac8      0x318 libs/libm.a(lib_a-ef_rem_pio2.o)
 .rodata.init_jk
                0x08058de0        0xc libs/libm.a(lib_a-kf_rem_pio2.o)
 .rodata.PIo2   0x08058dec       0x2c libs/libm.a(lib_a-kf_rem_pio2.o)
 .rodata.str1.4
                0x08058e18        0x4 /usr/lib/gcc/arm-none-eabi/4.8/../../../arm-none-eabi/lib/armv7e-m/fpu/libg.a(lib_a-impure.o)
 .rodata._global_impure_ptr
                0x08058e1c        0x4 /usr/lib/gcc/arm-none-eabi/4.8/../../../arm-none-eabi/lib/armv7e-m/fpu/libg.a(lib_a-impure.o)
                0x08058e1c                _global_impure_ptr
 *(.eh_fram e*)

.eh_frame       0x08058e20        0x0
 .eh_frame      0x08058e20        0x0 /usr/lib/gcc/arm-none-eabi/4.8/armv7e-m/fpu/crtbegin.o

.glue_7         0x08058e20        0x0
 .glue_7        0x08058e20        0x0 linker stubs

.glue_7t        0x08058e20        0x0
 .glue_7t       0x08058e20        0x0 linker stubs

.vfp11_veneer   0x08058e20        0x0
 .vfp11_veneer  0x08058e20        0x0 linker stubs

.v4_bx          0x08058e20        0x0
 .v4_bx         0x08058e20        0x0 linker stubs

.iplt           0x08058e20        0x0
 .iplt          0x08058e20        0x0 /usr/lib/gcc/arm-none-eabi/4.8/armv7e-m/fpu/crtbegin.o

.rel.dyn        0x08058e20        0x0
 .rel.iplt      0x08058e20        0x0 /usr/lib/gcc/arm-none-eabi/4.8/armv7e-m/fpu/crtbegin.o

.ARM.extab
 *(.ARM.extab* .gnu.linkonce.armextab.*)
                0x08058e20                __exidx_start = .

.ARM.exidx
 *(.ARM.exidx* .gnu.linkonce.armexidx.*)
                0x08058e20                __exidx_end = .
                0x08058e20                __etext = .
                0x08058e20                _sidata = __etext

.data           0x20000000      0x674 load address 0x08058e20
                0x20000000                __data_start__ = .
                0x20000000                _sdata = __data_start__
 *(vtable)
 *(.data*)
 .data          0x20000000       0x30 usb/usbd/core/src/usbd_core.o
                0x20000000                USBD_DCD_INT_cb
                0x2000002c                USBD_DCD_INT_fops
 .data          0x20000030       0x74 usb/usbd/class/cdc/src/usbd_cdc_core.o
                0x20000030                usbd_cdc_CfgDesc
                0x20000078                USBD_CDC_cb
 .data          0x200000a4       0x1c drivers/cat/usb/usbd_usr.o
                0x200000a4                USR_cb
 .data          0x200000c0       0x40 drivers/cat/usb/usbd_desc.o
                0x200000c0                USR_desc
                0x200000dc                USBD_DeviceDesc
                0x200000f0                USBD_DeviceQualifierDesc
                0x200000fc                USBD_LangIDDesc
 .data          0x20000100       0x1c drivers/cat/usb/usbd_cdc_vcp.o
                0x20000100                linecoding
                0x20000108                VCP_fops
 .data          0x2000011c        0x1 drivers/audio/audio_driver.o
 *fill*         0x2000011d        0x3 
 .data          0x20000120       0x20 drivers/ui/ui_menu.o
 .data          0x20000140       0xe8 drivers/ui/ui_driver.o
                0x20000140                tcxo_table_20m
 .data          0x20000228        0x4 hardware/mchf_hw_i2c2.o
                0x20000228                I2C2_Timeout
 .data          0x2000022c        0x4 hardware/mchf_hw_i2c.o
                0x2000022c                I2C1_Timeout
 .data.__fdlib_version
                0x20000230        0x1 libs/libm.a(lib_a-s_lib_ver.o)
                0x20000230                __fdlib_version
 *fill*         0x20000231        0x7 
 .data.impure_data
                0x20000238      0x428 /usr/lib/gcc/arm-none-eabi/4.8/../../../arm-none-eabi/lib/armv7e-m/fpu/libg.a(lib_a-impure.o)
 .data._impure_ptr
                0x20000660        0x4 /usr/lib/gcc/arm-none-eabi/4.8/../../../arm-none-eabi/lib/armv7e-m/fpu/libg.a(lib_a-impure.o)
                0x20000660                _impure_ptr
                0x20000664                . = ALIGN (0x4)
                0x20000664                PROVIDE (__preinit_array_start, .)
 *(.preinit_array)
                0x20000664                PROVIDE (__preinit_array_end, .)
                0x20000664                . = ALIGN (0x4)
                0x20000664                PROVIDE (__init_array_start, .)
 *(SORT(.init_array.*))
 .init_array.00000
                0x20000664        0x4 /usr/lib/gcc/arm-none-eabi/4.8/../../../arm-none-eabi/lib/armv7e-m/fpu/libg.a(lib_a-__call_atexit.o)
 *(.init_array)
 .init_array    0x20000668        0x4 /usr/lib/gcc/arm-none-eabi/4.8/armv7e-m/fpu/crtbegin.o
                0x2000066c                PROVIDE (__init_array_end, .)
                0x2000066c                . = ALIGN (0x4)
                0x2000066c                PROVIDE (__fini_array_start, .)
 *(SORT(.fini_array.*))
 *(.fini_array)
 .fini_array    0x2000066c        0x4 /usr/lib/gcc/arm-none-eabi/4.8/armv7e-m/fpu/crtbegin.o
                0x20000670                PROVIDE (__fini_array_end, .)
 *(.jcr*)
 .jcr           0x20000670        0x0 /usr/lib/gcc/arm-none-eabi/4.8/armv7e-m/fpu/crtbegin.o
 .jcr           0x20000670        0x4 /usr/lib/gcc/arm-none-eabi/4.8/armv7e-m/fpu/crtend.o
                0x20000674                . = ALIGN (0x4)
                0x20000674                __data_end__ = .
                0x20000674                _edata = __data_end__

.tm_clone_table
                0x20000674        0x0 load address 0x08059494
 .tm_clone_table
                0x20000674        0x0 /usr/lib/gcc/arm-none-eabi/4.8/armv7e-m/fpu/crtbegin.o
 .tm_clone_table
                0x20000674        0x0 /usr/lib/gcc/arm-none-eabi/4.8/armv7e-m/fpu/crtend.o

.igot.plt       0x20000674        0x0 load address 0x08059494
 .igot.plt      0x20000674        0x0 /usr/lib/gcc/arm-none-eabi/4.8/armv7e-m/fpu/crtbegin.o

.bss            0x20000678    0x1908c load address 0x08059498
                0x20000678                . = ALIGN (0x4)
                0x20000678                __bss_start__ = .
                0x20000678                _sbss = __bss_start__
 *(.bss*)
 .bss           0x20000678       0x1c /usr/lib/gcc/arm-none-eabi/4.8/armv7e-m/fpu/crtbegin.o
 .bss           0x20000694       0x10 usb/usbd/core/src/usbd_req.o
                0x20000694                USBD_ep_status
                0x20000698                USBD_default_cfg
                0x2000069c                USBD_cfg_status
 .bss           0x200006a4       0x1c usb/usbd/class/cdc/src/usbd_cdc_core.o
                0x200006a8                APP_Rx_ptr_in
                0x200006ac                APP_Rx_ptr_out
                0x200006b0                APP_Rx_length
                0x200006b4                USB_Tx_State
 .bss           0x200006c0     0x3d68 drivers/audio/audio_driver.o
 .bss           0x20004428       0x90 drivers/audio/codec/i2s.o
 .bss           0x200044b8        0x4 drivers/keyboard/usb/usbh_bsp.o
                0x200044b8                BSP_delay
 .bss           0x200044bc        0x1 drivers/ui/ui_menu.o
 *fill*         0x200044bd        0x3 
 .bss           0x200044c0      0x860 drivers/ui/ui_driver.o
                0x200044c0                unmute_delay
                0x200044c4                drv_state
                0x200044c5                drv_init
                0x20004cc8                ptt_break
 .bss           0x20004d20        0x2 misc/v_eprom/eeprom.o
                0x20004d20                DataVar
 *(COMMON)
 *fill*         0x20004d22        0x2 
 COMMON         0x20004d24      0x1ec main.o
                0x20004d24                ts
 COMMON         0x20004f10        0x4 usb/usbd/core/src/usbd_core.o
                0x20004f10                SET_TEST_MODE
 COMMON         0x20004f14       0xff usb/usbd/core/src/usbd_req.o
                0x20004f14                USBD_StrDesc
 *fill*         0x20005013        0x1 
 COMMON         0x20005014      0x88c usb/usbd/class/cdc/src/usbd_cdc_core.o
                0x20005014                usbd_cdc_OtherCfgDesc
                0x20005058                USB_Rx_Buffer
                0x20005098                CmdBuff
                0x200050a0                APP_Rx_Buffer
 COMMON         0x200058a0      0xa94 drivers/cat/cat_driver.o
                0x200058a0                USB_OTG_dev
 COMMON         0x20006334       0x18 drivers/audio/cw/cw_gen.o
                0x20006334                ps
 COMMON         0x2000634c    0x1291c drivers/audio/audio_driver.o
                0x2000634c                lms1StateF32
                0x2000674c                lms2StateF32
                0x20006b4c                lms1_instance
                0x20006b5c                errsig2
                0x20006c84                lms2_nr_delay
                0x200074c4                rx_buffer
                0x200075c8                interpState
                0x2000768c                tx_buffer
                0x20007790                errsig1
                0x200078b8                FIR_Q
                0x200078c4                iir_tx_state
                0x20007988                lms1NormCoeff_f32
                0x20007d88                lms2NormCoeff_f32
                0x20008188                FIR_Q_TX
                0x20008194                sd
                0x20016e84                result
                0x20016fac                lms1Norm_instance
                0x20016fc4                FIR_I_TX
                0x20016fd0                FIR_I
                0x20016fdc                decimState
                0x200170a0                sm
                0x200170b4                IIR_TXFilter
                0x200170c4                lms1_nr_delay
                0x20017904                lms2Norm_instance
                0x2001791c                ads
                0x20018c58                lms2_instance
 COMMON         0x20018c68        0x4 drivers/audio/softdds/softdds.o
                0x20018c68                step
 *fill*         0x20018c6c        0x4 
 COMMON         0x20018c70       0x28 drivers/ui/oscillator/ui_si570.o
                0x20018c70                os
 COMMON         0x20018c98       0xd4 drivers/ui/ui_menu.o
                0x20018c98                ks
                0x20018cbc                pwmt
                0x20018ccc                df
                0x20018d04                lo
                0x20018d14                ets
                0x20018d20                swrm
                0x20018d54                ews
                0x20018d60                eos
 COMMON         0x20018d6c      0x170 drivers/ui/ui_driver.o
                0x20018d6c                band_decod_mode
                0x20018d94                kd
                0x20018d98                band_filter_mode
                0x20018dc0                band_dial_value
                0x20018de8                es
                0x20018dec                band_decod_mode_a
                0x20018e14                band_decod_mode_b
                0x20018e3c                band_dial_value_b
                0x20018e64                band_filter_mode_a
                0x20018e8c                band_dial_value_a
                0x20018eb4                band_filter_mode_b
 COMMON         0x20018edc        0x6 drivers/ui/lcd/ui_lcd_hy28.o
                0x20018edc                lcd_cs_pio
                0x20018ee0                lcd_cs
 *fill*         0x20018ee2        0x2 
 COMMON         0x20018ee4      0x820 hardware/mchf_board.o
                0x20018ee4                fc
                0x20019704                . = ALIGN (0x4)
                0x20019704                __bss_end__ = .
                0x20019704                _ebss = __bss_end__

.heap           0x20019704        0x0
                0x20019704                __end__ = .
                0x20019704                _end = __end__
                0x20019704                end = __end__
 *(.heap*)
                0x20019704                __HeapLimit = .

.co_stack       0x20019704     0x1004 load address 0x08072524
                0x20019708                . = ALIGN (0x8)
 *fill*         0x20019704        0x4 
 *(.co_stack .co_stack.*)
 .co_stack      0x20019708     0x1000 cmsis_boot/startup/startup_stm32f4xx.o
                0x20019708                pulStack
                0x20020000                __StackTop = (ORIGIN (ram) + 0x20000)
                0x2001effc                __StackLimit = (__StackTop - SIZEOF (.co_stack))
                0x20020000                PROVIDE (__stack, __StackTop)
                0x00000001                ASSERT ((__StackLimit >= __HeapLimit), region ram  overflowed with stack)
OUTPUT(mchf.elf elf32-littlearm)

.ARM.attributes
                0x00000000       0x32
 .ARM.attributes
                0x00000000       0x22 /usr/lib/gcc/arm-none-eabi/4.8/armv7e-m/fpu/crti.o
 .ARM.attributes
                0x00000022       0x34 /usr/lib/gcc/arm-none-eabi/4.8/armv7e-m/fpu/crtbegin.o
 .ARM.attributes
                0x00000056       0x39 main.o
 .ARM.attributes
                0x0000008f       0x39 usb/otg/src/usb_core.o
 .ARM.attributes
                0x000000c8       0x39 usb/otg/src/usb_dcd.o
 .ARM.attributes
                0x00000101       0x39 usb/otg/src/usb_dcd_int.o
 .ARM.attributes
                0x0000013a       0x39 usb/usbd/core/src/usbd_core.o
 .ARM.attributes
                0x00000173       0x39 usb/usbd/core/src/usbd_ioreq.o
 .ARM.attributes
                0x000001ac       0x39 usb/usbd/core/src/usbd_req.o
 .ARM.attributes
                0x000001e5       0x39 usb/usbd/class/cdc/src/usbd_cdc_core.o
 .ARM.attributes
                0x0000021e       0x39 cmsis_lib/source/misc.o
 .ARM.attributes
                0x00000257       0x39 cmsis_lib/source/stm32f4xx_syscfg.o
 .ARM.attributes
                0x00000290       0x39 cmsis_lib/source/stm32f4xx_gpio.o
 .ARM.attributes
                0x000002c9       0x39 cmsis_lib/source/stm32f4xx_adc.o
 .ARM.attributes
                0x00000302       0x39 cmsis_lib/source/stm32f4xx_exti.o
 .ARM.attributes
                0x0000033b       0x39 cmsis_lib/source/stm32f4xx_i2c.o
 .ARM.attributes
                0x00000374       0x39 cmsis_lib/source/stm32f4xx_dac.o
 .ARM.attributes
                0x000003ad       0x39 cmsis_lib/source/stm32f4xx_fsmc.o
 .ARM.attributes
                0x000003e6       0x39 cmsis_lib/source/stm32f4xx_flash.o
 .ARM.attributes
                0x0000041f       0x39 cmsis_lib/source/stm32f4xx_spi.o
 .ARM.attributes
                0x00000458       0x39 cmsis_lib/source/stm32f4xx_dma.o
 .ARM.attributes
                0x00000491       0x39 cmsis_lib/source/stm32f4xx_tim.o
 .ARM.attributes
                0x000004ca       0x39 cmsis_lib/source/stm32f4xx_rcc.o
 .ARM.attributes
                0x00000503       0x39 drivers/cat/cat_driver.o
 .ARM.attributes
                0x0000053c       0x39 drivers/cat/usb/usbd_usr.o
 .ARM.attributes
                0x00000575       0x39 drivers/cat/usb/usbd_bsp.o
 .ARM.attributes
                0x000005ae       0x39 drivers/cat/usb/usbd_desc.o
 .ARM.attributes
                0x000005e7       0x39 drivers/cat/usb/usbd_cdc_vcp.o
 .ARM.attributes
                0x00000620       0x39 drivers/audio/cw/cw_gen.o
 .ARM.attributes
                0x00000659       0x39 drivers/audio/audio_driver.o
 .ARM.attributes
                0x00000692       0x39 drivers/audio/codec/codec.o
 .ARM.attributes
                0x000006cb       0x39 drivers/audio/codec/i2s.o
 .ARM.attributes
                0x00000704       0x39 drivers/audio/softdds/softdds.o
 .ARM.attributes
                0x0000073d       0x39 drivers/keyboard/usb/usbh_bsp.o
 .ARM.attributes
                0x00000776       0x39 drivers/keyboard/keyb_driver.o
 .ARM.attributes
                0x000007af       0x39 drivers/ui/oscillator/ui_si570.o
 .ARM.attributes
                0x000007e8       0x39 drivers/ui/ui_menu.o
 .ARM.attributes
                0x00000821       0x39 drivers/ui/ui_driver.o
 .ARM.attributes
                0x0000085a       0x39 drivers/ui/encoder/ui_rotary.o
 .ARM.attributes
                0x00000893       0x39 drivers/ui/lcd/ui_lcd_hy28.o
 .ARM.attributes
                0x000008cc       0x39 drivers/ui/lcd/ui_lcd_hy28_fonts.o
 .ARM.attributes
                0x00000905       0x39 hardware/mchf_hw_i2c2.o
 .ARM.attributes
                0x0000093e       0x39 hardware/mchf_hw_i2c.o
 .ARM.attributes
                0x00000977       0x39 hardware/mchf_board.o
 .ARM.attributes
                0x000009b0       0x39 cmsis_boot/system_stm32f4xx.o
 .ARM.attributes
                0x000009e9       0x39 cmsis_boot/startup/startup_stm32f4xx.o
 .ARM.attributes
                0x00000a22       0x39 misc/v_eprom/eeprom.o
 .ARM.attributes
                0x00000a5b       0x39 stdio/printf.o
 .ARM.attributes
                0x00000a94       0x3b libs/libarm_cortexM4lf_math.a(arm_fill_q15.o)
 .ARM.attributes
                0x00000acf       0x3b libs/libarm_cortexM4lf_math.a(arm_fill_f32.o)
 .ARM.attributes
                0x00000b0a       0x3b libs/libarm_cortexM4lf_math.a(arm_copy_q15.o)
 .ARM.attributes
                0x00000b45       0x3b libs/libarm_cortexM4lf_math.a(arm_copy_f32.o)
 .ARM.attributes
                0x00000b80       0x3b libs/libarm_cortexM4lf_math.a(arm_min_q15.o)
 .ARM.attributes
                0x00000bbb       0x3b libs/libarm_cortexM4lf_math.a(arm_min_f32.o)
 .ARM.attributes
                0x00000bf6       0x3b libs/libarm_cortexM4lf_math.a(arm_mean_q15.o)
 .ARM.attributes
                0x00000c31       0x3b libs/libarm_cortexM4lf_math.a(arm_mean_f32.o)
 .ARM.attributes
                0x00000c6c       0x3b libs/libarm_cortexM4lf_math.a(arm_max_q15.o)
 .ARM.attributes
                0x00000ca7       0x3b libs/libarm_cortexM4lf_math.a(arm_max_f32.o)
 .ARM.attributes
                0x00000ce2       0x3b libs/libarm_cortexM4lf_math.a(arm_rfft_init_f32.o)
 .ARM.attributes
                0x00000d1d       0x3b libs/libarm_cortexM4lf_math.a(arm_rfft_f32.o)
 .ARM.attributes
                0x00000d58       0x3b libs/libarm_cortexM4lf_math.a(arm_cfft_radix4_init_f32.o)
 .ARM.attributes
                0x00000d93       0x3b libs/libarm_cortexM4lf_math.a(arm_cfft_radix4_f32.o)
 .ARM.attributes
                0x00000dce       0x3b libs/libarm_cortexM4lf_math.a(arm_lms_norm_init_f32.o)
 .ARM.attributes
                0x00000e09       0x3b libs/libarm_cortexM4lf_math.a(arm_lms_norm_f32.o)
 .ARM.attributes
                0x00000e44       0x3b libs/libarm_cortexM4lf_math.a(arm_iir_lattice_f32.o)
 .ARM.attributes
                0x00000e7f       0x3b libs/libarm_cortexM4lf_math.a(arm_fir_interpolate_f32.o)
 .ARM.attributes
                0x00000eba       0x3b libs/libarm_cortexM4lf_math.a(arm_fir_init_f32.o)
 .ARM.attributes
                0x00000ef5       0x3b libs/libarm_cortexM4lf_math.a(arm_fir_f32.o)
 .ARM.attributes
                0x00000f30       0x3b libs/libarm_cortexM4lf_math.a(arm_fir_decimate_f32.o)
 .ARM.attributes
                0x00000f6b       0x3b libs/libarm_cortexM4lf_math.a(arm_cmplx_mag_f32.o)
 .ARM.attributes
                0x00000fa6       0x3b libs/libarm_cortexM4lf_math.a(arm_sin_f32.o)
 .ARM.attributes
                0x00000fe1       0x3b libs/libarm_cortexM4lf_math.a(arm_cos_f32.o)
 .ARM.attributes
                0x0000101c       0x3b libs/libarm_cortexM4lf_math.a(arm_sub_f32.o)
 .ARM.attributes
                0x00001057       0x3b libs/libarm_cortexM4lf_math.a(arm_scale_f32.o)
 .ARM.attributes
                0x00001092       0x3b libs/libarm_cortexM4lf_math.a(arm_offset_f32.o)
 .ARM.attributes
                0x000010cd       0x3b libs/libarm_cortexM4lf_math.a(arm_negate_f32.o)
 .ARM.attributes
                0x00001108       0x3b libs/libarm_cortexM4lf_math.a(arm_mult_f32.o)
 .ARM.attributes
                0x00001143       0x3b libs/libarm_cortexM4lf_math.a(arm_add_f32.o)
 .ARM.attributes
                0x0000117e       0x3b libs/libarm_cortexM4lf_math.a(arm_common_tables.o)
 .ARM.attributes
                0x000011b9       0x36 libs/libm.a(lib_a-s_cos.o)
 .ARM.attributes
                0x000011ef       0x36 libs/libm.a(lib_a-s_pow10.o)
 .ARM.attributes
                0x00001225       0x36 libs/libm.a(lib_a-s_sin.o)
 .ARM.attributes
                0x0000125b       0x36 libs/libm.a(lib_a-sf_ceil.o)
 .ARM.attributes
                0x00001291       0x36 libs/libm.a(lib_a-sf_floor.o)
 .ARM.attributes
                0x000012c7       0x36 libs/libm.a(lib_a-sf_round.o)
 .ARM.attributes
                0x000012fd       0x36 libs/libm.a(lib_a-sf_trunc.o)
 .ARM.attributes
                0x00001333       0x36 libs/libm.a(lib_a-w_log10.o)
 .ARM.attributes
                0x00001369       0x36 libs/libm.a(lib_a-w_pow.o)
 .ARM.attributes
                0x0000139f       0x36 libs/libm.a(lib_a-w_sqrt.o)
 .ARM.attributes
                0x000013d5       0x36 libs/libm.a(lib_a-wf_log10.o)
 .ARM.attributes
                0x0000140b       0x36 libs/libm.a(lib_a-wf_pow.o)
 .ARM.attributes
                0x00001441       0x36 libs/libm.a(lib_a-wf_sincos.o)
 .ARM.attributes
                0x00001477       0x36 libs/libm.a(lib_a-wf_sqrt.o)
 .ARM.attributes
                0x000014ad       0x36 libs/libm.a(lib_a-e_log10.o)
 .ARM.attributes
                0x000014e3       0x36 libs/libm.a(lib_a-e_pow.o)
 .ARM.attributes
                0x00001519       0x36 libs/libm.a(lib_a-e_rem_pio2.o)
 .ARM.attributes
                0x0000154f       0x36 libs/libm.a(lib_a-e_sqrt.o)
 .ARM.attributes
                0x00001585       0x36 libs/libm.a(lib_a-ef_log10.o)
 .ARM.attributes
                0x000015bb       0x36 libs/libm.a(lib_a-ef_pow.o)
 .ARM.attributes
                0x000015f1       0x36 libs/libm.a(lib_a-ef_sqrt.o)
 .ARM.attributes
                0x00001627       0x36 libs/libm.a(lib_a-k_cos.o)
 .ARM.attributes
                0x0000165d       0x36 libs/libm.a(lib_a-k_rem_pio2.o)
 .ARM.attributes
                0x00001693       0x36 libs/libm.a(lib_a-k_sin.o)
 .ARM.attributes
                0x000016c9       0x36 libs/libm.a(lib_a-s_fabs.o)
 .ARM.attributes
                0x000016ff       0x36 libs/libm.a(lib_a-s_finite.o)
 .ARM.attributes
                0x00001735       0x36 libs/libm.a(lib_a-s_floor.o)
 .ARM.attributes
                0x0000176b       0x36 libs/libm.a(lib_a-s_fpclassify.o)
 .ARM.attributes
                0x000017a1       0x36 libs/libm.a(lib_a-s_lib_ver.o)
 .ARM.attributes
                0x000017d7       0x36 libs/libm.a(lib_a-s_matherr.o)
 .ARM.attributes
                0x0000180d       0x36 libs/libm.a(lib_a-s_nan.o)
 .ARM.attributes
                0x00001843       0x36 libs/libm.a(lib_a-s_rint.o)
 .ARM.attributes
                0x00001879       0x36 libs/libm.a(lib_a-s_scalbn.o)
 .ARM.attributes
                0x000018af       0x36 libs/libm.a(lib_a-sf_cos.o)
 .ARM.attributes
                0x000018e5       0x36 libs/libm.a(lib_a-sf_fabs.o)
 .ARM.attributes
                0x0000191b       0x36 libs/libm.a(lib_a-sf_finite.o)
 .ARM.attributes
                0x00001951       0x36 libs/libm.a(lib_a-sf_fpclassify.o)
 .ARM.attributes
                0x00001987       0x36 libs/libm.a(lib_a-sf_nan.o)
 .ARM.attributes
                0x000019bd       0x36 libs/libm.a(lib_a-sf_scalbn.o)
 .ARM.attributes
                0x000019f3       0x36 libs/libm.a(lib_a-sf_sin.o)
 .ARM.attributes
                0x00001a29       0x36 libs/libm.a(lib_a-e_log.o)
 .ARM.attributes
                0x00001a5f       0x36 libs/libm.a(lib_a-ef_log.o)
 .ARM.attributes
                0x00001a95       0x36 libs/libm.a(lib_a-ef_rem_pio2.o)
 .ARM.attributes
                0x00001acb       0x36 libs/libm.a(lib_a-kf_cos.o)
 .ARM.attributes
                0x00001b01       0x36 libs/libm.a(lib_a-kf_rem_pio2.o)
 .ARM.attributes
                0x00001b37       0x36 libs/libm.a(lib_a-kf_sin.o)
 .ARM.attributes
                0x00001b6d       0x36 libs/libm.a(lib_a-s_copysign.o)
 .ARM.attributes
                0x00001ba3       0x36 libs/libm.a(lib_a-sf_copysign.o)
 .ARM.attributes
                0x00001bd9       0x34 /usr/lib/gcc/arm-none-eabi/4.8/../../../arm-none-eabi/lib/armv7e-m/fpu/libg.a(lib_a-atexit.o)
 .ARM.attributes
                0x00001c0d       0x34 /usr/lib/gcc/arm-none-eabi/4.8/../../../arm-none-eabi/lib/armv7e-m/fpu/libg.a(lib_a-errno.o)
 .ARM.attributes
                0x00001c41       0x34 /usr/lib/gcc/arm-none-eabi/4.8/../../../arm-none-eabi/lib/armv7e-m/fpu/libg.a(lib_a-fini.o)
 .ARM.attributes
                0x00001c75       0x34 /usr/lib/gcc/arm-none-eabi/4.8/../../../arm-none-eabi/lib/armv7e-m/fpu/libg.a(lib_a-impure.o)
 .ARM.attributes
                0x00001ca9       0x34 /usr/lib/gcc/arm-none-eabi/4.8/../../../arm-none-eabi/lib/armv7e-m/fpu/libg.a(lib_a-memcmp.o)
 .ARM.attributes
                0x00001cdd       0x34 /usr/lib/gcc/arm-none-eabi/4.8/../../../arm-none-eabi/lib/armv7e-m/fpu/libg.a(lib_a-memset.o)
 .ARM.attributes
                0x00001d11       0x34 /usr/lib/gcc/arm-none-eabi/4.8/../../../arm-none-eabi/lib/armv7e-m/fpu/libg.a(lib_a-strlen.o)
 .ARM.attributes
                0x00001d45       0x34 /usr/lib/gcc/arm-none-eabi/4.8/../../../arm-none-eabi/lib/armv7e-m/fpu/libg.a(lib_a-__atexit.o)
 .ARM.attributes
                0x00001d79       0x34 /usr/lib/gcc/arm-none-eabi/4.8/../../../arm-none-eabi/lib/armv7e-m/fpu/libg.a(lib_a-__call_atexit.o)
 .ARM.attributes
                0x00001dad       0x22 /usr/lib/gcc/arm-none-eabi/4.8/armv7e-m/fpu/libgcc.a(_arm_addsubdf3.o)
 .ARM.attributes
                0x00001dcf       0x22 /usr/lib/gcc/arm-none-eabi/4.8/armv7e-m/fpu/libgcc.a(_arm_muldivdf3.o)
 .ARM.attributes
                0x00001df1       0x22 /usr/lib/gcc/arm-none-eabi/4.8/armv7e-m/fpu/libgcc.a(_arm_cmpdf2.o)
 .ARM.attributes
                0x00001e13       0x22 /usr/lib/gcc/arm-none-eabi/4.8/armv7e-m/fpu/libgcc.a(_arm_fixdfsi.o)
 .ARM.attributes
                0x00001e35       0x22 /usr/lib/gcc/arm-none-eabi/4.8/armv7e-m/fpu/libgcc.a(_arm_truncdfsf2.o)
 .ARM.attributes
                0x00001e57       0x34 /usr/lib/gcc/arm-none-eabi/4.8/armv7e-m/fpu/crtend.o
 .ARM.attributes
                0x00001e8b       0x22 /usr/lib/gcc/arm-none-eabi/4.8/armv7e-m/fpu/crtn.o

.comment        0x00000000       0x88
 .comment       0x00000000       0x2d /usr/lib/gcc/arm-none-eabi/4.8/armv7e-m/fpu/crtbegin.o
                                 0x2e (size before relaxing)
 .comment       0x0000002d       0x2e main.o
 .comment       0x0000002d       0x2e usb/otg/src/usb_core.o
 .comment       0x0000002d       0x2e usb/otg/src/usb_dcd.o
 .comment       0x0000002d       0x2e usb/otg/src/usb_dcd_int.o
 .comment       0x0000002d       0x2e usb/usbd/core/src/usbd_core.o
 .comment       0x0000002d       0x2e usb/usbd/core/src/usbd_ioreq.o
 .comment       0x0000002d       0x2e usb/usbd/core/src/usbd_req.o
 .comment       0x0000002d       0x2e usb/usbd/class/cdc/src/usbd_cdc_core.o
 .comment       0x0000002d       0x2e cmsis_lib/source/misc.o
 .comment       0x0000002d       0x2e cmsis_lib/source/stm32f4xx_syscfg.o
 .comment       0x0000002d       0x2e cmsis_lib/source/stm32f4xx_gpio.o
 .comment       0x0000002d       0x2e cmsis_lib/source/stm32f4xx_adc.o
 .comment       0x0000002d       0x2e cmsis_lib/source/stm32f4xx_exti.o
 .comment       0x0000002d       0x2e cmsis_lib/source/stm32f4xx_i2c.o
 .comment       0x0000002d       0x2e cmsis_lib/source/stm32f4xx_dac.o
 .comment       0x0000002d       0x2e cmsis_lib/source/stm32f4xx_fsmc.o
 .comment       0x0000002d       0x2e cmsis_lib/source/stm32f4xx_flash.o
 .comment       0x0000002d       0x2e cmsis_lib/source/stm32f4xx_spi.o
 .comment       0x0000002d       0x2e cmsis_lib/source/stm32f4xx_dma.o
 .comment       0x0000002d       0x2e cmsis_lib/source/stm32f4xx_tim.o
 .comment       0x0000002d       0x2e cmsis_lib/source/stm32f4xx_rcc.o
 .comment       0x0000002d       0x2e drivers/cat/cat_driver.o
 .comment       0x0000002d       0x2e drivers/cat/usb/usbd_usr.o
 .comment       0x0000002d       0x2e drivers/cat/usb/usbd_bsp.o
 .comment       0x0000002d       0x2e drivers/cat/usb/usbd_desc.o
 .comment       0x0000002d       0x2e drivers/cat/usb/usbd_cdc_vcp.o
 .comment       0x0000002d       0x2e drivers/audio/cw/cw_gen.o
 .comment       0x0000002d       0x2e drivers/audio/audio_driver.o
 .comment       0x0000002d       0x2e drivers/audio/codec/codec.o
 .comment       0x0000002d       0x2e drivers/audio/codec/i2s.o
 .comment       0x0000002d       0x2e drivers/audio/softdds/softdds.o
 .comment       0x0000002d       0x2e drivers/keyboard/usb/usbh_bsp.o
 .comment       0x0000002d       0x2e drivers/keyboard/keyb_driver.o
 .comment       0x0000002d       0x2e drivers/ui/oscillator/ui_si570.o
 .comment       0x0000002d       0x2e drivers/ui/ui_menu.o
 .comment       0x0000002d       0x2e drivers/ui/ui_driver.o
 .comment       0x0000002d       0x2e drivers/ui/encoder/ui_rotary.o
 .comment       0x0000002d       0x2e drivers/ui/lcd/ui_lcd_hy28.o
 .comment       0x0000002d       0x2e drivers/ui/lcd/ui_lcd_hy28_fonts.o
 .comment       0x0000002d       0x2e hardware/mchf_hw_i2c2.o
 .comment       0x0000002d       0x2e hardware/mchf_hw_i2c.o
 .comment       0x0000002d       0x2e hardware/mchf_board.o
 .comment       0x0000002d       0x2e cmsis_boot/system_stm32f4xx.o
 .comment       0x0000002d       0x2e cmsis_boot/startup/startup_stm32f4xx.o
 .comment       0x0000002d       0x2e misc/v_eprom/eeprom.o
 .comment       0x0000002d       0x2e stdio/printf.o
 .comment       0x0000002d       0x30 libs/libarm_cortexM4lf_math.a(arm_fill_q15.o)
                                 0x31 (size before relaxing)
 .comment       0x0000005d       0x31 libs/libarm_cortexM4lf_math.a(arm_fill_f32.o)
 .comment       0x0000005d       0x31 libs/libarm_cortexM4lf_math.a(arm_copy_q15.o)
 .comment       0x0000005d       0x31 libs/libarm_cortexM4lf_math.a(arm_copy_f32.o)
 .comment       0x0000005d       0x31 libs/libarm_cortexM4lf_math.a(arm_min_q15.o)
 .comment       0x0000005d       0x31 libs/libarm_cortexM4lf_math.a(arm_min_f32.o)
 .comment       0x0000005d       0x31 libs/libarm_cortexM4lf_math.a(arm_mean_q15.o)
 .comment       0x0000005d       0x31 libs/libarm_cortexM4lf_math.a(arm_mean_f32.o)
 .comment       0x0000005d       0x31 libs/libarm_cortexM4lf_math.a(arm_max_q15.o)
 .comment       0x0000005d       0x31 libs/libarm_cortexM4lf_math.a(arm_max_f32.o)
 .comment       0x0000005d       0x31 libs/libarm_cortexM4lf_math.a(arm_rfft_init_f32.o)
 .comment       0x0000005d       0x31 libs/libarm_cortexM4lf_math.a(arm_rfft_f32.o)
 .comment       0x0000005d       0x31 libs/libarm_cortexM4lf_math.a(arm_cfft_radix4_init_f32.o)
 .comment       0x0000005d       0x31 libs/libarm_cortexM4lf_math.a(arm_cfft_radix4_f32.o)
 .comment       0x0000005d       0x31 libs/libarm_cortexM4lf_math.a(arm_lms_norm_init_f32.o)
 .comment       0x0000005d       0x31 libs/libarm_cortexM4lf_math.a(arm_lms_norm_f32.o)
 .comment       0x0000005d       0x31 libs/libarm_cortexM4lf_math.a(arm_iir_lattice_f32.o)
 .comment       0x0000005d       0x31 libs/libarm_cortexM4lf_math.a(arm_fir_interpolate_f32.o)
 .comment       0x0000005d       0x31 libs/libarm_cortexM4lf_math.a(arm_fir_init_f32.o)
 .comment       0x0000005d       0x31 libs/libarm_cortexM4lf_math.a(arm_fir_f32.o)
 .comment       0x0000005d       0x31 libs/libarm_cortexM4lf_math.a(arm_fir_decimate_f32.o)
 .comment       0x0000005d       0x31 libs/libarm_cortexM4lf_math.a(arm_cmplx_mag_f32.o)
 .comment       0x0000005d       0x31 libs/libarm_cortexM4lf_math.a(arm_sin_f32.o)
 .comment       0x0000005d       0x31 libs/libarm_cortexM4lf_math.a(arm_cos_f32.o)
 .comment       0x0000005d       0x31 libs/libarm_cortexM4lf_math.a(arm_sub_f32.o)
 .comment       0x0000005d       0x31 libs/libarm_cortexM4lf_math.a(arm_scale_f32.o)
 .comment       0x0000005d       0x31 libs/libarm_cortexM4lf_math.a(arm_offset_f32.o)
 .comment       0x0000005d       0x31 libs/libarm_cortexM4lf_math.a(arm_negate_f32.o)
 .comment       0x0000005d       0x31 libs/libarm_cortexM4lf_math.a(arm_mult_f32.o)
 .comment       0x0000005d       0x31 libs/libarm_cortexM4lf_math.a(arm_add_f32.o)
 .comment       0x0000005d       0x31 libs/libarm_cortexM4lf_math.a(arm_common_tables.o)
 .comment       0x0000005d       0x2b /usr/lib/gcc/arm-none-eabi/4.8/../../../arm-none-eabi/lib/armv7e-m/fpu/libg.a(lib_a-atexit.o)
                                 0x2c (size before relaxing)
 .comment       0x00000088       0x2c /usr/lib/gcc/arm-none-eabi/4.8/../../../arm-none-eabi/lib/armv7e-m/fpu/libg.a(lib_a-errno.o)
 .comment       0x00000088       0x2c /usr/lib/gcc/arm-none-eabi/4.8/../../../arm-none-eabi/lib/armv7e-m/fpu/libg.a(lib_a-fini.o)
 .comment       0x00000088       0x2c /usr/lib/gcc/arm-none-eabi/4.8/../../../arm-none-eabi/lib/armv7e-m/fpu/libg.a(lib_a-impure.o)
 .comment       0x00000088       0x2c /usr/lib/gcc/arm-none-eabi/4.8/../../../arm-none-eabi/lib/armv7e-m/fpu/libg.a(lib_a-memcmp.o)
 .comment       0x00000088       0x2c /usr/lib/gcc/arm-none-eabi/4.8/../../../arm-none-eabi/lib/armv7e-m/fpu/libg.a(lib_a-memset.o)
 .comment       0x00000088       0x2c /usr/lib/gcc/arm-none-eabi/4.8/../../../arm-none-eabi/lib/armv7e-m/fpu/libg.a(lib_a-strlen.o)
 .comment       0x00000088       0x2c /usr/lib/gcc/arm-none-eabi/4.8/../../../arm-none-eabi/lib/armv7e-m/fpu/libg.a(lib_a-__atexit.o)
 .comment       0x00000088       0x2c /usr/lib/gcc/arm-none-eabi/4.8/../../../arm-none-eabi/lib/armv7e-m/fpu/libg.a(lib_a-__call_atexit.o)
 .comment       0x00000088       0x2e /usr/lib/gcc/arm-none-eabi/4.8/armv7e-m/fpu/crtend.o

.debug_info     0x00000000     0x6313
 .debug_info    0x00000000      0x15d libs/libarm_cortexM4lf_math.a(arm_fill_q15.o)
 .debug_info    0x0000015d       0xfa libs/libarm_cortexM4lf_math.a(arm_fill_f32.o)
 .debug_info    0x00000257      0x189 libs/libarm_cortexM4lf_math.a(arm_copy_q15.o)
 .debug_info    0x000003e0       0xfb libs/libarm_cortexM4lf_math.a(arm_copy_f32.o)
 .debug_info    0x000004db      0x146 libs/libarm_cortexM4lf_math.a(arm_min_q15.o)
 .debug_info    0x00000621      0x13a libs/libarm_cortexM4lf_math.a(arm_min_f32.o)
 .debug_info    0x0000075b      0x12c libs/libarm_cortexM4lf_math.a(arm_mean_q15.o)
 .debug_info    0x00000887      0x106 libs/libarm_cortexM4lf_math.a(arm_mean_f32.o)
 .debug_info    0x0000098d      0x146 libs/libarm_cortexM4lf_math.a(arm_max_q15.o)
 .debug_info    0x00000ad3      0x13a libs/libarm_cortexM4lf_math.a(arm_max_f32.o)
 .debug_info    0x00000c0d      0x2e7 libs/libarm_cortexM4lf_math.a(arm_rfft_init_f32.o)
 .debug_info    0x00000ef4      0x477 libs/libarm_cortexM4lf_math.a(arm_rfft_f32.o)
 .debug_info    0x0000136b      0x24c libs/libarm_cortexM4lf_math.a(arm_cfft_radix4_init_f32.o)
 .debug_info    0x000015b7      0x573 libs/libarm_cortexM4lf_math.a(arm_cfft_radix4_f32.o)
 .debug_info    0x00001b2a      0x198 libs/libarm_cortexM4lf_math.a(arm_lms_norm_init_f32.o)
 .debug_info    0x00001cc2      0x27e libs/libarm_cortexM4lf_math.a(arm_lms_norm_f32.o)
 .debug_info    0x00001f40      0x235 libs/libarm_cortexM4lf_math.a(arm_iir_lattice_f32.o)
 .debug_info    0x00002175      0x22b libs/libarm_cortexM4lf_math.a(arm_fir_interpolate_f32.o)
 .debug_info    0x000023a0      0x15f libs/libarm_cortexM4lf_math.a(arm_fir_init_f32.o)
 .debug_info    0x000024ff      0x25a libs/libarm_cortexM4lf_math.a(arm_fir_f32.o)
 .debug_info    0x00002759      0x22a libs/libarm_cortexM4lf_math.a(arm_fir_decimate_f32.o)
 .debug_info    0x00002983      0x22d libs/libarm_cortexM4lf_math.a(arm_cmplx_mag_f32.o)
 .debug_info    0x00002bb0      0x1c8 libs/libarm_cortexM4lf_math.a(arm_sin_f32.o)
 .debug_info    0x00002d78      0x1c0 libs/libarm_cortexM4lf_math.a(arm_cos_f32.o)
 .debug_info    0x00002f38      0x10a libs/libarm_cortexM4lf_math.a(arm_sub_f32.o)
 .debug_info    0x00003042      0x109 libs/libarm_cortexM4lf_math.a(arm_scale_f32.o)
 .debug_info    0x0000314b      0x109 libs/libarm_cortexM4lf_math.a(arm_offset_f32.o)
 .debug_info    0x00003254       0xfb libs/libarm_cortexM4lf_math.a(arm_negate_f32.o)
 .debug_info    0x0000334f      0x10a libs/libarm_cortexM4lf_math.a(arm_mult_f32.o)
 .debug_info    0x00003459      0x10a libs/libarm_cortexM4lf_math.a(arm_add_f32.o)
 .debug_info    0x00003563      0x136 libs/libarm_cortexM4lf_math.a(arm_common_tables.o)
 .debug_info    0x00003699      0x10a /usr/lib/gcc/arm-none-eabi/4.8/../../../arm-none-eabi/lib/armv7e-m/fpu/libg.a(lib_a-atexit.o)
 .debug_info    0x000037a3      0x889 /usr/lib/gcc/arm-none-eabi/4.8/../../../arm-none-eabi/lib/armv7e-m/fpu/libg.a(lib_a-errno.o)
 .debug_info    0x0000402c       0xef /usr/lib/gcc/arm-none-eabi/4.8/../../../arm-none-eabi/lib/armv7e-m/fpu/libg.a(lib_a-fini.o)
 .debug_info    0x0000411b      0x894 /usr/lib/gcc/arm-none-eabi/4.8/../../../arm-none-eabi/lib/armv7e-m/fpu/libg.a(lib_a-impure.o)
 .debug_info    0x000049af      0x113 /usr/lib/gcc/arm-none-eabi/4.8/../../../arm-none-eabi/lib/armv7e-m/fpu/libg.a(lib_a-memcmp.o)
 .debug_info    0x00004ac2      0x117 /usr/lib/gcc/arm-none-eabi/4.8/../../../arm-none-eabi/lib/armv7e-m/fpu/libg.a(lib_a-memset.o)
 .debug_info    0x00004bd9       0xb5 /usr/lib/gcc/arm-none-eabi/4.8/../../../arm-none-eabi/lib/armv7e-m/fpu/libg.a(lib_a-strlen.o)
 .debug_info    0x00004c8e      0x934 /usr/lib/gcc/arm-none-eabi/4.8/../../../arm-none-eabi/lib/armv7e-m/fpu/libg.a(lib_a-__atexit.o)
 .debug_info    0x000055c2      0x9aa /usr/lib/gcc/arm-none-eabi/4.8/../../../arm-none-eabi/lib/armv7e-m/fpu/libg.a(lib_a-__call_atexit.o)
 .debug_info    0x00005f6c       0xbb /usr/lib/gcc/arm-none-eabi/4.8/armv7e-m/fpu/libgcc.a(_arm_addsubdf3.o)
 .debug_info    0x00006027       0xbb /usr/lib/gcc/arm-none-eabi/4.8/armv7e-m/fpu/libgcc.a(_arm_muldivdf3.o)
 .debug_info    0x000060e2       0xbb /usr/lib/gcc/arm-none-eabi/4.8/armv7e-m/fpu/libgcc.a(_arm_cmpdf2.o)
 .debug_info    0x0000619d       0xbb /usr/lib/gcc/arm-none-eabi/4.8/armv7e-m/fpu/libgcc.a(_arm_fixdfsi.o)
 .debug_info    0x00006258       0xbb /usr/lib/gcc/arm-none-eabi/4.8/armv7e-m/fpu/libgcc.a(_arm_truncdfsf2.o)

.debug_abbrev   0x00000000     0x21b5
 .debug_abbrev  0x00000000       0xa9 libs/libarm_cortexM4lf_math.a(arm_fill_q15.o)
 .debug_abbrev  0x000000a9       0x91 libs/libarm_cortexM4lf_math.a(arm_fill_f32.o)
 .debug_abbrev  0x0000013a       0xae libs/libarm_cortexM4lf_math.a(arm_copy_q15.o)
 .debug_abbrev  0x000001e8       0x82 libs/libarm_cortexM4lf_math.a(arm_copy_f32.o)
 .debug_abbrev  0x0000026a       0xaf libs/libarm_cortexM4lf_math.a(arm_min_q15.o)
 .debug_abbrev  0x00000319       0xb1 libs/libarm_cortexM4lf_math.a(arm_min_f32.o)
 .debug_abbrev  0x000003ca       0x91 libs/libarm_cortexM4lf_math.a(arm_mean_q15.o)
 .debug_abbrev  0x0000045b       0xa0 libs/libarm_cortexM4lf_math.a(arm_mean_f32.o)
 .debug_abbrev  0x000004fb       0xaf libs/libarm_cortexM4lf_math.a(arm_max_q15.o)
 .debug_abbrev  0x000005aa       0xb1 libs/libarm_cortexM4lf_math.a(arm_max_f32.o)
 .debug_abbrev  0x0000065b      0x10d libs/libarm_cortexM4lf_math.a(arm_rfft_init_f32.o)
 .debug_abbrev  0x00000768      0x125 libs/libarm_cortexM4lf_math.a(arm_rfft_f32.o)
 .debug_abbrev  0x0000088d      0x109 libs/libarm_cortexM4lf_math.a(arm_cfft_radix4_init_f32.o)
 .debug_abbrev  0x00000996      0x123 libs/libarm_cortexM4lf_math.a(arm_cfft_radix4_f32.o)
 .debug_abbrev  0x00000ab9       0xbe libs/libarm_cortexM4lf_math.a(arm_lms_norm_init_f32.o)
 .debug_abbrev  0x00000b77       0xdc libs/libarm_cortexM4lf_math.a(arm_lms_norm_f32.o)
 .debug_abbrev  0x00000c53       0xc5 libs/libarm_cortexM4lf_math.a(arm_iir_lattice_f32.o)
 .debug_abbrev  0x00000d18       0xd4 libs/libarm_cortexM4lf_math.a(arm_fir_interpolate_f32.o)
 .debug_abbrev  0x00000dec       0xaf libs/libarm_cortexM4lf_math.a(arm_fir_init_f32.o)
 .debug_abbrev  0x00000e9b       0xd4 libs/libarm_cortexM4lf_math.a(arm_fir_f32.o)
 .debug_abbrev  0x00000f6f       0xe3 libs/libarm_cortexM4lf_math.a(arm_fir_decimate_f32.o)
 .debug_abbrev  0x00001052       0xf5 libs/libarm_cortexM4lf_math.a(arm_cmplx_mag_f32.o)
 .debug_abbrev  0x00001147       0xe6 libs/libarm_cortexM4lf_math.a(arm_sin_f32.o)
 .debug_abbrev  0x0000122d       0xe6 libs/libarm_cortexM4lf_math.a(arm_cos_f32.o)
 .debug_abbrev  0x00001313       0x82 libs/libarm_cortexM4lf_math.a(arm_sub_f32.o)
 .debug_abbrev  0x00001395       0x91 libs/libarm_cortexM4lf_math.a(arm_scale_f32.o)
 .debug_abbrev  0x00001426       0x91 libs/libarm_cortexM4lf_math.a(arm_offset_f32.o)
 .debug_abbrev  0x000014b7       0x82 libs/libarm_cortexM4lf_math.a(arm_negate_f32.o)
 .debug_abbrev  0x00001539       0x82 libs/libarm_cortexM4lf_math.a(arm_mult_f32.o)
 .debug_abbrev  0x000015bb       0x82 libs/libarm_cortexM4lf_math.a(arm_add_f32.o)
 .debug_abbrev  0x0000163d       0x6e libs/libarm_cortexM4lf_math.a(arm_common_tables.o)
 .debug_abbrev  0x000016ab       0xb8 /usr/lib/gcc/arm-none-eabi/4.8/../../../arm-none-eabi/lib/armv7e-m/fpu/libg.a(lib_a-atexit.o)
 .debug_abbrev  0x00001763      0x18f /usr/lib/gcc/arm-none-eabi/4.8/../../../arm-none-eabi/lib/armv7e-m/fpu/libg.a(lib_a-errno.o)
 .debug_abbrev  0x000018f2       0xbd /usr/lib/gcc/arm-none-eabi/4.8/../../../arm-none-eabi/lib/armv7e-m/fpu/libg.a(lib_a-fini.o)
 .debug_abbrev  0x000019af      0x180 /usr/lib/gcc/arm-none-eabi/4.8/../../../arm-none-eabi/lib/armv7e-m/fpu/libg.a(lib_a-impure.o)
 .debug_abbrev  0x00001b2f       0x7f /usr/lib/gcc/arm-none-eabi/4.8/../../../arm-none-eabi/lib/armv7e-m/fpu/libg.a(lib_a-memcmp.o)
 .debug_abbrev  0x00001bae       0x9f /usr/lib/gcc/arm-none-eabi/4.8/../../../arm-none-eabi/lib/armv7e-m/fpu/libg.a(lib_a-memset.o)
 .debug_abbrev  0x00001c4d       0x70 /usr/lib/gcc/arm-none-eabi/4.8/../../../arm-none-eabi/lib/armv7e-m/fpu/libg.a(lib_a-strlen.o)
 .debug_abbrev  0x00001cbd      0x20f /usr/lib/gcc/arm-none-eabi/4.8/../../../arm-none-eabi/lib/armv7e-m/fpu/libg.a(lib_a-__atexit.o)
 .debug_abbrev  0x00001ecc      0x285 /usr/lib/gcc/arm-none-eabi/4.8/../../../arm-none-eabi/lib/armv7e-m/fpu/libg.a(lib_a-__call_atexit.o)
 .debug_abbrev  0x00002151       0x14 /usr/lib/gcc/arm-none-eabi/4.8/armv7e-m/fpu/libgcc.a(_arm_addsubdf3.o)
 .debug_abbrev  0x00002165       0x14 /usr/lib/gcc/arm-none-eabi/4.8/armv7e-m/fpu/libgcc.a(_arm_muldivdf3.o)
 .debug_abbrev  0x00002179       0x14 /usr/lib/gcc/arm-none-eabi/4.8/armv7e-m/fpu/libgcc.a(_arm_cmpdf2.o)
 .debug_abbrev  0x0000218d       0x14 /usr/lib/gcc/arm-none-eabi/4.8/armv7e-m/fpu/libgcc.a(_arm_fixdfsi.o)
 .debug_abbrev  0x000021a1       0x14 /usr/lib/gcc/arm-none-eabi/4.8/armv7e-m/fpu/libgcc.a(_arm_truncdfsf2.o)

.debug_loc      0x00000000     0x51be
 .debug_loc     0x00000000       0xf3 libs/libarm_cortexM4lf_math.a(arm_fill_q15.o)
 .debug_loc     0x000000f3       0xdb libs/libarm_cortexM4lf_math.a(arm_fill_f32.o)
 .debug_loc     0x000001ce      0x164 libs/libarm_cortexM4lf_math.a(arm_copy_q15.o)
 .debug_loc     0x00000332      0x138 libs/libarm_cortexM4lf_math.a(arm_copy_f32.o)
 .debug_loc     0x0000046a       0xce libs/libarm_cortexM4lf_math.a(arm_min_q15.o)
 .debug_loc     0x00000538       0xd9 libs/libarm_cortexM4lf_math.a(arm_min_f32.o)
 .debug_loc     0x00000611      0x12e libs/libarm_cortexM4lf_math.a(arm_mean_q15.o)
 .debug_loc     0x0000073f      0x119 libs/libarm_cortexM4lf_math.a(arm_mean_f32.o)
 .debug_loc     0x00000858       0xce libs/libarm_cortexM4lf_math.a(arm_max_q15.o)
 .debug_loc     0x00000926       0xd9 libs/libarm_cortexM4lf_math.a(arm_max_f32.o)
 .debug_loc     0x000009ff       0xe5 libs/libarm_cortexM4lf_math.a(arm_rfft_init_f32.o)
 .debug_loc     0x00000ae4      0x5ae libs/libarm_cortexM4lf_math.a(arm_rfft_f32.o)
 .debug_loc     0x00001092      0x1cb libs/libarm_cortexM4lf_math.a(arm_cfft_radix4_init_f32.o)
 .debug_loc     0x0000125d      0xb6f libs/libarm_cortexM4lf_math.a(arm_cfft_radix4_f32.o)
 .debug_loc     0x00001dcc       0xd2 libs/libarm_cortexM4lf_math.a(arm_lms_norm_init_f32.o)
 .debug_loc     0x00001e9e      0x6e4 libs/libarm_cortexM4lf_math.a(arm_lms_norm_f32.o)
 .debug_loc     0x00002582      0x630 libs/libarm_cortexM4lf_math.a(arm_iir_lattice_f32.o)
 .debug_loc     0x00002bb2      0x45a libs/libarm_cortexM4lf_math.a(arm_fir_interpolate_f32.o)
 .debug_loc     0x0000300c       0xa6 libs/libarm_cortexM4lf_math.a(arm_fir_init_f32.o)
 .debug_loc     0x000030b2      0x755 libs/libarm_cortexM4lf_math.a(arm_fir_f32.o)
 .debug_loc     0x00003807      0x3fe libs/libarm_cortexM4lf_math.a(arm_fir_decimate_f32.o)
 .debug_loc     0x00003c05      0x3fe libs/libarm_cortexM4lf_math.a(arm_cmplx_mag_f32.o)
 .debug_loc     0x00004003      0x17a libs/libarm_cortexM4lf_math.a(arm_sin_f32.o)
 .debug_loc     0x0000417d      0x15e libs/libarm_cortexM4lf_math.a(arm_cos_f32.o)
 .debug_loc     0x000042db      0x1ad libs/libarm_cortexM4lf_math.a(arm_sub_f32.o)
 .debug_loc     0x00004488      0x150 libs/libarm_cortexM4lf_math.a(arm_scale_f32.o)
 .debug_loc     0x000045d8      0x150 libs/libarm_cortexM4lf_math.a(arm_offset_f32.o)
 .debug_loc     0x00004728      0x138 libs/libarm_cortexM4lf_math.a(arm_negate_f32.o)
 .debug_loc     0x00004860      0x1ad libs/libarm_cortexM4lf_math.a(arm_mult_f32.o)
 .debug_loc     0x00004a0d      0x1ad libs/libarm_cortexM4lf_math.a(arm_add_f32.o)
 .debug_loc     0x00004bba       0x2c /usr/lib/gcc/arm-none-eabi/4.8/../../../arm-none-eabi/lib/armv7e-m/fpu/libg.a(lib_a-atexit.o)
 .debug_loc     0x00004be6       0x5c /usr/lib/gcc/arm-none-eabi/4.8/../../../arm-none-eabi/lib/armv7e-m/fpu/libg.a(lib_a-fini.o)
 .debug_loc     0x00004c42      0x12b /usr/lib/gcc/arm-none-eabi/4.8/../../../arm-none-eabi/lib/armv7e-m/fpu/libg.a(lib_a-memcmp.o)
 .debug_loc     0x00004d6d      0x18b /usr/lib/gcc/arm-none-eabi/4.8/../../../arm-none-eabi/lib/armv7e-m/fpu/libg.a(lib_a-memset.o)
 .debug_loc     0x00004ef8       0x21 /usr/lib/gcc/arm-none-eabi/4.8/../../../arm-none-eabi/lib/armv7e-m/fpu/libg.a(lib_a-strlen.o)
 .debug_loc     0x00004f19      0x137 /usr/lib/gcc/arm-none-eabi/4.8/../../../arm-none-eabi/lib/armv7e-m/fpu/libg.a(lib_a-__atexit.o)
 .debug_loc     0x00005050      0x16e /usr/lib/gcc/arm-none-eabi/4.8/../../../arm-none-eabi/lib/armv7e-m/fpu/libg.a(lib_a-__call_atexit.o)

.debug_aranges  0x00000000      0x5a8
 .debug_aranges
                0x00000000       0x20 libs/libarm_cortexM4lf_math.a(arm_fill_q15.o)
 .debug_aranges
                0x00000020       0x20 libs/libarm_cortexM4lf_math.a(arm_fill_f32.o)
 .debug_aranges
                0x00000040       0x20 libs/libarm_cortexM4lf_math.a(arm_copy_q15.o)
 .debug_aranges
                0x00000060       0x20 libs/libarm_cortexM4lf_math.a(arm_copy_f32.o)
 .debug_aranges
                0x00000080       0x20 libs/libarm_cortexM4lf_math.a(arm_min_q15.o)
 .debug_aranges
                0x000000a0       0x20 libs/libarm_cortexM4lf_math.a(arm_min_f32.o)
 .debug_aranges
                0x000000c0       0x20 libs/libarm_cortexM4lf_math.a(arm_mean_q15.o)
 .debug_aranges
                0x000000e0       0x20 libs/libarm_cortexM4lf_math.a(arm_mean_f32.o)
 .debug_aranges
                0x00000100       0x20 libs/libarm_cortexM4lf_math.a(arm_max_q15.o)
 .debug_aranges
                0x00000120       0x20 libs/libarm_cortexM4lf_math.a(arm_max_f32.o)
 .debug_aranges
                0x00000140       0x20 libs/libarm_cortexM4lf_math.a(arm_rfft_init_f32.o)
 .debug_aranges
                0x00000160       0x30 libs/libarm_cortexM4lf_math.a(arm_rfft_f32.o)
 .debug_aranges
                0x00000190       0x20 libs/libarm_cortexM4lf_math.a(arm_cfft_radix4_init_f32.o)
 .debug_aranges
                0x000001b0       0x38 libs/libarm_cortexM4lf_math.a(arm_cfft_radix4_f32.o)
 .debug_aranges
                0x000001e8       0x20 libs/libarm_cortexM4lf_math.a(arm_lms_norm_init_f32.o)
 .debug_aranges
                0x00000208       0x20 libs/libarm_cortexM4lf_math.a(arm_lms_norm_f32.o)
 .debug_aranges
                0x00000228       0x20 libs/libarm_cortexM4lf_math.a(arm_iir_lattice_f32.o)
 .debug_aranges
                0x00000248       0x20 libs/libarm_cortexM4lf_math.a(arm_fir_interpolate_f32.o)
 .debug_aranges
                0x00000268       0x20 libs/libarm_cortexM4lf_math.a(arm_fir_init_f32.o)
 .debug_aranges
                0x00000288       0x20 libs/libarm_cortexM4lf_math.a(arm_fir_f32.o)
 .debug_aranges
                0x000002a8       0x20 libs/libarm_cortexM4lf_math.a(arm_fir_decimate_f32.o)
 .debug_aranges
                0x000002c8       0x20 libs/libarm_cortexM4lf_math.a(arm_cmplx_mag_f32.o)
 .debug_aranges
                0x000002e8       0x20 libs/libarm_cortexM4lf_math.a(arm_sin_f32.o)
 .debug_aranges
                0x00000308       0x20 libs/libarm_cortexM4lf_math.a(arm_cos_f32.o)
 .debug_aranges
                0x00000328       0x20 libs/libarm_cortexM4lf_math.a(arm_sub_f32.o)
 .debug_aranges
                0x00000348       0x20 libs/libarm_cortexM4lf_math.a(arm_scale_f32.o)
 .debug_aranges
                0x00000368       0x20 libs/libarm_cortexM4lf_math.a(arm_offset_f32.o)
 .debug_aranges
                0x00000388       0x20 libs/libarm_cortexM4lf_math.a(arm_negate_f32.o)
 .debug_aranges
                0x000003a8       0x20 libs/libarm_cortexM4lf_math.a(arm_mult_f32.o)
 .debug_aranges
                0x000003c8       0x20 libs/libarm_cortexM4lf_math.a(arm_add_f32.o)
 .debug_aranges
                0x000003e8       0x20 /usr/lib/gcc/arm-none-eabi/4.8/../../../arm-none-eabi/lib/armv7e-m/fpu/libg.a(lib_a-atexit.o)
 .debug_aranges
                0x00000408       0x20 /usr/lib/gcc/arm-none-eabi/4.8/../../../arm-none-eabi/lib/armv7e-m/fpu/libg.a(lib_a-errno.o)
 .debug_aranges
                0x00000428       0x20 /usr/lib/gcc/arm-none-eabi/4.8/../../../arm-none-eabi/lib/armv7e-m/fpu/libg.a(lib_a-fini.o)
 .debug_aranges
                0x00000448       0x18 /usr/lib/gcc/arm-none-eabi/4.8/../../../arm-none-eabi/lib/armv7e-m/fpu/libg.a(lib_a-impure.o)
 .debug_aranges
                0x00000460       0x20 /usr/lib/gcc/arm-none-eabi/4.8/../../../arm-none-eabi/lib/armv7e-m/fpu/libg.a(lib_a-memcmp.o)
 .debug_aranges
                0x00000480       0x20 /usr/lib/gcc/arm-none-eabi/4.8/../../../arm-none-eabi/lib/armv7e-m/fpu/libg.a(lib_a-memset.o)
 .debug_aranges
                0x000004a0       0x20 /usr/lib/gcc/arm-none-eabi/4.8/../../../arm-none-eabi/lib/armv7e-m/fpu/libg.a(lib_a-strlen.o)
 .debug_aranges
                0x000004c0       0x20 /usr/lib/gcc/arm-none-eabi/4.8/../../../arm-none-eabi/lib/armv7e-m/fpu/libg.a(lib_a-__atexit.o)
 .debug_aranges
                0x000004e0       0x28 /usr/lib/gcc/arm-none-eabi/4.8/../../../arm-none-eabi/lib/armv7e-m/fpu/libg.a(lib_a-__call_atexit.o)
 .debug_aranges
                0x00000508       0x20 /usr/lib/gcc/arm-none-eabi/4.8/armv7e-m/fpu/libgcc.a(_arm_addsubdf3.o)
 .debug_aranges
                0x00000528       0x20 /usr/lib/gcc/arm-none-eabi/4.8/armv7e-m/fpu/libgcc.a(_arm_muldivdf3.o)
 .debug_aranges
                0x00000548       0x20 /usr/lib/gcc/arm-none-eabi/4.8/armv7e-m/fpu/libgcc.a(_arm_cmpdf2.o)
 .debug_aranges
                0x00000568       0x20 /usr/lib/gcc/arm-none-eabi/4.8/armv7e-m/fpu/libgcc.a(_arm_fixdfsi.o)
 .debug_aranges
                0x00000588       0x20 /usr/lib/gcc/arm-none-eabi/4.8/armv7e-m/fpu/libgcc.a(_arm_truncdfsf2.o)

.debug_ranges   0x00000000      0x468
 .debug_ranges  0x00000000       0x10 libs/libarm_cortexM4lf_math.a(arm_fill_q15.o)
 .debug_ranges  0x00000010       0x10 libs/libarm_cortexM4lf_math.a(arm_fill_f32.o)
 .debug_ranges  0x00000020       0xc0 libs/libarm_cortexM4lf_math.a(arm_copy_q15.o)
 .debug_ranges  0x000000e0       0x10 libs/libarm_cortexM4lf_math.a(arm_copy_f32.o)
 .debug_ranges  0x000000f0       0x10 libs/libarm_cortexM4lf_math.a(arm_min_q15.o)
 .debug_ranges  0x00000100       0x10 libs/libarm_cortexM4lf_math.a(arm_min_f32.o)
 .debug_ranges  0x00000110       0x10 libs/libarm_cortexM4lf_math.a(arm_mean_q15.o)
 .debug_ranges  0x00000120       0x10 libs/libarm_cortexM4lf_math.a(arm_mean_f32.o)
 .debug_ranges  0x00000130       0x10 libs/libarm_cortexM4lf_math.a(arm_max_q15.o)
 .debug_ranges  0x00000140       0x10 libs/libarm_cortexM4lf_math.a(arm_max_f32.o)
 .debug_ranges  0x00000150       0x10 libs/libarm_cortexM4lf_math.a(arm_rfft_init_f32.o)
 .debug_ranges  0x00000160       0x20 libs/libarm_cortexM4lf_math.a(arm_rfft_f32.o)
 .debug_ranges  0x00000180       0x10 libs/libarm_cortexM4lf_math.a(arm_cfft_radix4_init_f32.o)
 .debug_ranges  0x00000190       0x28 libs/libarm_cortexM4lf_math.a(arm_cfft_radix4_f32.o)
 .debug_ranges  0x000001b8       0x10 libs/libarm_cortexM4lf_math.a(arm_lms_norm_init_f32.o)
 .debug_ranges  0x000001c8       0x10 libs/libarm_cortexM4lf_math.a(arm_lms_norm_f32.o)
 .debug_ranges  0x000001d8       0x10 libs/libarm_cortexM4lf_math.a(arm_iir_lattice_f32.o)
 .debug_ranges  0x000001e8       0x10 libs/libarm_cortexM4lf_math.a(arm_fir_interpolate_f32.o)
 .debug_ranges  0x000001f8       0x10 libs/libarm_cortexM4lf_math.a(arm_fir_init_f32.o)
 .debug_ranges  0x00000208       0x10 libs/libarm_cortexM4lf_math.a(arm_fir_f32.o)
 .debug_ranges  0x00000218       0x10 libs/libarm_cortexM4lf_math.a(arm_fir_decimate_f32.o)
 .debug_ranges  0x00000228      0x118 libs/libarm_cortexM4lf_math.a(arm_cmplx_mag_f32.o)
 .debug_ranges  0x00000340       0x10 libs/libarm_cortexM4lf_math.a(arm_sin_f32.o)
 .debug_ranges  0x00000350       0x10 libs/libarm_cortexM4lf_math.a(arm_cos_f32.o)
 .debug_ranges  0x00000360       0x10 libs/libarm_cortexM4lf_math.a(arm_sub_f32.o)
 .debug_ranges  0x00000370       0x10 libs/libarm_cortexM4lf_math.a(arm_scale_f32.o)
 .debug_ranges  0x00000380       0x10 libs/libarm_cortexM4lf_math.a(arm_offset_f32.o)
 .debug_ranges  0x00000390       0x10 libs/libarm_cortexM4lf_math.a(arm_negate_f32.o)
 .debug_ranges  0x000003a0       0x10 libs/libarm_cortexM4lf_math.a(arm_mult_f32.o)
 .debug_ranges  0x000003b0       0x10 libs/libarm_cortexM4lf_math.a(arm_add_f32.o)
 .debug_ranges  0x000003c0       0x10 /usr/lib/gcc/arm-none-eabi/4.8/../../../arm-none-eabi/lib/armv7e-m/fpu/libg.a(lib_a-atexit.o)
 .debug_ranges  0x000003d0       0x10 /usr/lib/gcc/arm-none-eabi/4.8/../../../arm-none-eabi/lib/armv7e-m/fpu/libg.a(lib_a-errno.o)
 .debug_ranges  0x000003e0       0x10 /usr/lib/gcc/arm-none-eabi/4.8/../../../arm-none-eabi/lib/armv7e-m/fpu/libg.a(lib_a-fini.o)
 .debug_ranges  0x000003f0       0x10 /usr/lib/gcc/arm-none-eabi/4.8/../../../arm-none-eabi/lib/armv7e-m/fpu/libg.a(lib_a-memcmp.o)
 .debug_ranges  0x00000400       0x10 /usr/lib/gcc/arm-none-eabi/4.8/../../../arm-none-eabi/lib/armv7e-m/fpu/libg.a(lib_a-memset.o)
 .debug_ranges  0x00000410       0x10 /usr/lib/gcc/arm-none-eabi/4.8/../../../arm-none-eabi/lib/armv7e-m/fpu/libg.a(lib_a-strlen.o)
 .debug_ranges  0x00000420       0x10 /usr/lib/gcc/arm-none-eabi/4.8/../../../arm-none-eabi/lib/armv7e-m/fpu/libg.a(lib_a-__atexit.o)
 .debug_ranges  0x00000430       0x38 /usr/lib/gcc/arm-none-eabi/4.8/../../../arm-none-eabi/lib/armv7e-m/fpu/libg.a(lib_a-__call_atexit.o)

.debug_line     0x00000000     0x4c4c
 .debug_line    0x00000000      0x163 libs/libarm_cortexM4lf_math.a(arm_fill_q15.o)
 .debug_line    0x00000163      0x160 libs/libarm_cortexM4lf_math.a(arm_fill_f32.o)
 .debug_line    0x000002c3      0x1b3 libs/libarm_cortexM4lf_math.a(arm_copy_q15.o)
 .debug_line    0x00000476      0x185 libs/libarm_cortexM4lf_math.a(arm_copy_f32.o)
 .debug_line    0x000005fb      0x11d libs/libarm_cortexM4lf_math.a(arm_min_q15.o)
 .debug_line    0x00000718      0x142 libs/libarm_cortexM4lf_math.a(arm_min_f32.o)
 .debug_line    0x0000085a      0x19a libs/libarm_cortexM4lf_math.a(arm_mean_q15.o)
 .debug_line    0x000009f4      0x197 libs/libarm_cortexM4lf_math.a(arm_mean_f32.o)
 .debug_line    0x00000b8b      0x11d libs/libarm_cortexM4lf_math.a(arm_max_q15.o)
 .debug_line    0x00000ca8      0x141 libs/libarm_cortexM4lf_math.a(arm_max_f32.o)
 .debug_line    0x00000de9      0x15a libs/libarm_cortexM4lf_math.a(arm_rfft_init_f32.o)
 .debug_line    0x00000f43      0x2f8 libs/libarm_cortexM4lf_math.a(arm_rfft_f32.o)
 .debug_line    0x0000123b      0x17b libs/libarm_cortexM4lf_math.a(arm_cfft_radix4_init_f32.o)
 .debug_line    0x000013b6      0x98f libs/libarm_cortexM4lf_math.a(arm_cfft_radix4_f32.o)
 .debug_line    0x00001d45      0x137 libs/libarm_cortexM4lf_math.a(arm_lms_norm_init_f32.o)
 .debug_line    0x00001e7c      0x2e2 libs/libarm_cortexM4lf_math.a(arm_lms_norm_f32.o)
 .debug_line    0x0000215e      0x29c libs/libarm_cortexM4lf_math.a(arm_iir_lattice_f32.o)
 .debug_line    0x000023fa      0x318 libs/libarm_cortexM4lf_math.a(arm_fir_interpolate_f32.o)
 .debug_line    0x00002712      0x120 libs/libarm_cortexM4lf_math.a(arm_fir_init_f32.o)
 .debug_line    0x00002832      0x2d9 libs/libarm_cortexM4lf_math.a(arm_fir_f32.o)
 .debug_line    0x00002b0b      0x2a5 libs/libarm_cortexM4lf_math.a(arm_fir_decimate_f32.o)
 .debug_line    0x00002db0      0x2b0 libs/libarm_cortexM4lf_math.a(arm_cmplx_mag_f32.o)
 .debug_line    0x00003060      0x151 libs/libarm_cortexM4lf_math.a(arm_sin_f32.o)
 .debug_line    0x000031b1      0x153 libs/libarm_cortexM4lf_math.a(arm_cos_f32.o)
 .debug_line    0x00003304      0x17e libs/libarm_cortexM4lf_math.a(arm_sub_f32.o)
 .debug_line    0x00003482      0x1a1 libs/libarm_cortexM4lf_math.a(arm_scale_f32.o)
 .debug_line    0x00003623      0x1a2 libs/libarm_cortexM4lf_math.a(arm_offset_f32.o)
 .debug_line    0x000037c5      0x177 libs/libarm_cortexM4lf_math.a(arm_negate_f32.o)
 .debug_line    0x0000393c      0x17f libs/libarm_cortexM4lf_math.a(arm_mult_f32.o)
 .debug_line    0x00003abb      0x17e libs/libarm_cortexM4lf_math.a(arm_add_f32.o)
 .debug_line    0x00003c39       0xfd libs/libarm_cortexM4lf_math.a(arm_common_tables.o)
 .debug_line    0x00003d36       0xca /usr/lib/gcc/arm-none-eabi/4.8/../../../arm-none-eabi/lib/armv7e-m/fpu/libg.a(lib_a-atexit.o)
 .debug_line    0x00003e00      0x113 /usr/lib/gcc/arm-none-eabi/4.8/../../../arm-none-eabi/lib/armv7e-m/fpu/libg.a(lib_a-errno.o)
 .debug_line    0x00003f13       0x9d /usr/lib/gcc/arm-none-eabi/4.8/../../../arm-none-eabi/lib/armv7e-m/fpu/libg.a(lib_a-fini.o)
 .debug_line    0x00003fb0       0xf8 /usr/lib/gcc/arm-none-eabi/4.8/../../../arm-none-eabi/lib/armv7e-m/fpu/libg.a(lib_a-impure.o)
 .debug_line    0x000040a8      0x11a /usr/lib/gcc/arm-none-eabi/4.8/../../../arm-none-eabi/lib/armv7e-m/fpu/libg.a(lib_a-memcmp.o)
 .debug_line    0x000041c2      0x12a /usr/lib/gcc/arm-none-eabi/4.8/../../../arm-none-eabi/lib/armv7e-m/fpu/libg.a(lib_a-memset.o)
 .debug_line    0x000042ec       0xf9 /usr/lib/gcc/arm-none-eabi/4.8/../../../arm-none-eabi/lib/armv7e-m/fpu/libg.a(lib_a-strlen.o)
 .debug_line    0x000043e5      0x19f /usr/lib/gcc/arm-none-eabi/4.8/../../../arm-none-eabi/lib/armv7e-m/fpu/libg.a(lib_a-__atexit.o)
 .debug_line    0x00004584      0x1d2 /usr/lib/gcc/arm-none-eabi/4.8/../../../arm-none-eabi/lib/armv7e-m/fpu/libg.a(lib_a-__call_atexit.o)
 .debug_line    0x00004756      0x17f /usr/lib/gcc/arm-none-eabi/4.8/armv7e-m/fpu/libgcc.a(_arm_addsubdf3.o)
 .debug_line    0x000048d5      0x1a3 /usr/lib/gcc/arm-none-eabi/4.8/armv7e-m/fpu/libgcc.a(_arm_muldivdf3.o)
 .debug_line    0x00004a78       0xc0 /usr/lib/gcc/arm-none-eabi/4.8/armv7e-m/fpu/libgcc.a(_arm_cmpdf2.o)
 .debug_line    0x00004b38       0x80 /usr/lib/gcc/arm-none-eabi/4.8/armv7e-m/fpu/libgcc.a(_arm_fixdfsi.o)
 .debug_line    0x00004bb8       0x94 /usr/lib/gcc/arm-none-eabi/4.8/armv7e-m/fpu/libgcc.a(_arm_truncdfsf2.o)

.debug_str      0x00000000     0x168d
 .debug_str     0x00000000      0x16e libs/libarm_cortexM4lf_math.a(arm_fill_q15.o)
                                0x1c4 (size before relaxing)
 .debug_str     0x0000016e       0x3a libs/libarm_cortexM4lf_math.a(arm_fill_f32.o)
                                0x192 (size before relaxing)
 .debug_str     0x000001a8       0x35 libs/libarm_cortexM4lf_math.a(arm_copy_q15.o)
                                0x1b1 (size before relaxing)
 .debug_str     0x000001dd       0x30 libs/libarm_cortexM4lf_math.a(arm_copy_f32.o)
                                0x191 (size before relaxing)
 .debug_str     0x0000020d       0x50 libs/libarm_cortexM4lf_math.a(arm_min_q15.o)
                                0x1b0 (size before relaxing)
 .debug_str     0x0000025d       0x31 libs/libarm_cortexM4lf_math.a(arm_min_f32.o)
                                0x1ac (size before relaxing)
 .debug_str     0x0000028e       0x33 libs/libarm_cortexM4lf_math.a(arm_mean_q15.o)
                                0x1a9 (size before relaxing)
 .debug_str     0x000002c1       0x33 libs/libarm_cortexM4lf_math.a(arm_mean_f32.o)
                                0x197 (size before relaxing)
 .debug_str     0x000002f4       0x38 libs/libarm_cortexM4lf_math.a(arm_max_q15.o)
                                0x1b0 (size before relaxing)
 .debug_str     0x0000032c       0x31 libs/libarm_cortexM4lf_math.a(arm_max_f32.o)
                                0x1ac (size before relaxing)
 .debug_str     0x0000035d      0x1ef libs/libarm_cortexM4lf_math.a(arm_rfft_init_f32.o)
                                0x343 (size before relaxing)
 .debug_str     0x0000054c       0xb7 libs/libarm_cortexM4lf_math.a(arm_rfft_f32.o)
                                0x314 (size before relaxing)
 .debug_str     0x00000603       0x65 libs/libarm_cortexM4lf_math.a(arm_cfft_radix4_init_f32.o)
                                0x2cf (size before relaxing)
 .debug_str     0x00000668       0xb3 libs/libarm_cortexM4lf_math.a(arm_cfft_radix4_f32.o)
                                0x295 (size before relaxing)
 .debug_str     0x0000071b       0x7c libs/libarm_cortexM4lf_math.a(arm_lms_norm_init_f32.o)
                                0x1d5 (size before relaxing)
 .debug_str     0x00000797       0x5c libs/libarm_cortexM4lf_math.a(arm_lms_norm_f32.o)
                                0x1f9 (size before relaxing)
 .debug_str     0x000007f3       0x91 libs/libarm_cortexM4lf_math.a(arm_iir_lattice_f32.o)
                                0x215 (size before relaxing)
 .debug_str     0x00000884       0x8d libs/libarm_cortexM4lf_math.a(arm_fir_interpolate_f32.o)
                                0x221 (size before relaxing)
 .debug_str     0x00000911       0x4f libs/libarm_cortexM4lf_math.a(arm_fir_init_f32.o)
                                0x1bf (size before relaxing)
 .debug_str     0x00000960       0x44 libs/libarm_cortexM4lf_math.a(arm_fir_f32.o)
                                0x1ed (size before relaxing)
 .debug_str     0x000009a4       0x6d libs/libarm_cortexM4lf_math.a(arm_fir_decimate_f32.o)
                                0x20e (size before relaxing)
 .debug_str     0x00000a11       0x64 libs/libarm_cortexM4lf_math.a(arm_cmplx_mag_f32.o)
                                0x259 (size before relaxing)
 .debug_str     0x00000a75       0x5e libs/libarm_cortexM4lf_math.a(arm_sin_f32.o)
                                0x1ac (size before relaxing)
 .debug_str     0x00000ad3       0x3f libs/libarm_cortexM4lf_math.a(arm_cos_f32.o)
                                0x1ac (size before relaxing)
 .debug_str     0x00000b12       0x3c libs/libarm_cortexM4lf_math.a(arm_sub_f32.o)
                                0x198 (size before relaxing)
 .debug_str     0x00000b4e       0x3a libs/libarm_cortexM4lf_math.a(arm_scale_f32.o)
                                0x19b (size before relaxing)
 .debug_str     0x00000b88       0x36 libs/libarm_cortexM4lf_math.a(arm_offset_f32.o)
                                0x19e (size before relaxing)
 .debug_str     0x00000bbe       0x36 libs/libarm_cortexM4lf_math.a(arm_negate_f32.o)
                                0x197 (size before relaxing)
 .debug_str     0x00000bf4       0x32 libs/libarm_cortexM4lf_math.a(arm_mult_f32.o)
                                0x19a (size before relaxing)
 .debug_str     0x00000c26       0x30 libs/libarm_cortexM4lf_math.a(arm_add_f32.o)
                                0x198 (size before relaxing)
 .debug_str     0x00000c56       0x46 libs/libarm_cortexM4lf_math.a(arm_common_tables.o)
                                0x1ad (size before relaxing)
 .debug_str     0x00000c9c      0x1bb /usr/lib/gcc/arm-none-eabi/4.8/../../../arm-none-eabi/lib/armv7e-m/fpu/libg.a(lib_a-atexit.o)
                                0x24b (size before relaxing)
 .debug_str     0x00000e57      0x43b /usr/lib/gcc/arm-none-eabi/4.8/../../../arm-none-eabi/lib/armv7e-m/fpu/libg.a(lib_a-errno.o)
                                0x5c7 (size before relaxing)
 .debug_str     0x00001292       0xd8 /usr/lib/gcc/arm-none-eabi/4.8/../../../arm-none-eabi/lib/armv7e-m/fpu/libg.a(lib_a-fini.o)
                                0x243 (size before relaxing)
 .debug_str     0x0000136a       0xbe /usr/lib/gcc/arm-none-eabi/4.8/../../../arm-none-eabi/lib/armv7e-m/fpu/libg.a(lib_a-impure.o)
                                0x5df (size before relaxing)
 .debug_str     0x00001428       0xa8 /usr/lib/gcc/arm-none-eabi/4.8/../../../arm-none-eabi/lib/armv7e-m/fpu/libg.a(lib_a-memcmp.o)
                                0x20e (size before relaxing)
 .debug_str     0x000014d0       0x4c /usr/lib/gcc/arm-none-eabi/4.8/../../../arm-none-eabi/lib/armv7e-m/fpu/libg.a(lib_a-memset.o)
                                0x222 (size before relaxing)
 .debug_str     0x0000151c       0xb5 /usr/lib/gcc/arm-none-eabi/4.8/../../../arm-none-eabi/lib/armv7e-m/fpu/libg.a(lib_a-strlen.o)
                                0x21b (size before relaxing)
 .debug_str     0x000015d1       0x33 /usr/lib/gcc/arm-none-eabi/4.8/../../../arm-none-eabi/lib/armv7e-m/fpu/libg.a(lib_a-__atexit.o)
                                0x627 (size before relaxing)
 .debug_str     0x00001604       0x89 /usr/lib/gcc/arm-none-eabi/4.8/../../../arm-none-eabi/lib/armv7e-m/fpu/libg.a(lib_a-__call_atexit.o)
                                0x63f (size before relaxing)

.debug_frame    0x00000000     0x100c
 .debug_frame   0x00000000       0x2c libs/libarm_cortexM4lf_math.a(arm_fill_q15.o)
 .debug_frame   0x0000002c       0x2c libs/libarm_cortexM4lf_math.a(arm_fill_f32.o)
 .debug_frame   0x00000058       0x34 libs/libarm_cortexM4lf_math.a(arm_copy_q15.o)
 .debug_frame   0x0000008c       0x30 libs/libarm_cortexM4lf_math.a(arm_copy_f32.o)
 .debug_frame   0x000000bc       0x34 libs/libarm_cortexM4lf_math.a(arm_min_q15.o)
 .debug_frame   0x000000f0       0x2c libs/libarm_cortexM4lf_math.a(arm_min_f32.o)
 .debug_frame   0x0000011c       0x38 libs/libarm_cortexM4lf_math.a(arm_mean_q15.o)
 .debug_frame   0x00000154       0x2c libs/libarm_cortexM4lf_math.a(arm_mean_f32.o)
 .debug_frame   0x00000180       0x34 libs/libarm_cortexM4lf_math.a(arm_max_q15.o)
 .debug_frame   0x000001b4       0x2c libs/libarm_cortexM4lf_math.a(arm_max_f32.o)
 .debug_frame   0x000001e0       0x2c libs/libarm_cortexM4lf_math.a(arm_rfft_init_f32.o)
 .debug_frame   0x0000020c       0x74 libs/libarm_cortexM4lf_math.a(arm_rfft_f32.o)
 .debug_frame   0x00000280       0x28 libs/libarm_cortexM4lf_math.a(arm_cfft_radix4_init_f32.o)
 .debug_frame   0x000002a8       0xb0 libs/libarm_cortexM4lf_math.a(arm_cfft_radix4_f32.o)
 .debug_frame   0x00000358       0x34 libs/libarm_cortexM4lf_math.a(arm_lms_norm_init_f32.o)
 .debug_frame   0x0000038c       0x38 libs/libarm_cortexM4lf_math.a(arm_lms_norm_f32.o)
 .debug_frame   0x000003c4       0x38 libs/libarm_cortexM4lf_math.a(arm_iir_lattice_f32.o)
 .debug_frame   0x000003fc       0x38 libs/libarm_cortexM4lf_math.a(arm_fir_interpolate_f32.o)
 .debug_frame   0x00000434       0x2c libs/libarm_cortexM4lf_math.a(arm_fir_init_f32.o)
 .debug_frame   0x00000460       0x38 libs/libarm_cortexM4lf_math.a(arm_fir_f32.o)
 .debug_frame   0x00000498       0x38 libs/libarm_cortexM4lf_math.a(arm_fir_decimate_f32.o)
 .debug_frame   0x000004d0       0x38 libs/libarm_cortexM4lf_math.a(arm_cmplx_mag_f32.o)
 .debug_frame   0x00000508       0x20 libs/libarm_cortexM4lf_math.a(arm_sin_f32.o)
 .debug_frame   0x00000528       0x20 libs/libarm_cortexM4lf_math.a(arm_cos_f32.o)
 .debug_frame   0x00000548       0x34 libs/libarm_cortexM4lf_math.a(arm_sub_f32.o)
 .debug_frame   0x0000057c       0x34 libs/libarm_cortexM4lf_math.a(arm_scale_f32.o)
 .debug_frame   0x000005b0       0x34 libs/libarm_cortexM4lf_math.a(arm_offset_f32.o)
 .debug_frame   0x000005e4       0x2c libs/libarm_cortexM4lf_math.a(arm_negate_f32.o)
 .debug_frame   0x00000610       0x34 libs/libarm_cortexM4lf_math.a(arm_mult_f32.o)
 .debug_frame   0x00000644       0x34 libs/libarm_cortexM4lf_math.a(arm_add_f32.o)
 .debug_frame   0x00000678       0x28 libs/libm.a(lib_a-s_cos.o)
 .debug_frame   0x000006a0       0x20 libs/libm.a(lib_a-s_pow10.o)
 .debug_frame   0x000006c0       0x28 libs/libm.a(lib_a-s_sin.o)
 .debug_frame   0x000006e8       0x28 libs/libm.a(lib_a-sf_ceil.o)
 .debug_frame   0x00000710       0x28 libs/libm.a(lib_a-sf_floor.o)
 .debug_frame   0x00000738       0x20 libs/libm.a(lib_a-sf_round.o)
 .debug_frame   0x00000758       0x20 libs/libm.a(lib_a-sf_trunc.o)
 .debug_frame   0x00000778       0x38 libs/libm.a(lib_a-w_log10.o)
 .debug_frame   0x000007b0       0x3c libs/libm.a(lib_a-w_pow.o)
 .debug_frame   0x000007ec       0x34 libs/libm.a(lib_a-w_sqrt.o)
 .debug_frame   0x00000820       0x30 libs/libm.a(lib_a-wf_log10.o)
 .debug_frame   0x00000850       0x3c libs/libm.a(lib_a-wf_pow.o)
 .debug_frame   0x0000088c       0x34 libs/libm.a(lib_a-wf_sincos.o)
 .debug_frame   0x000008c0       0x30 libs/libm.a(lib_a-wf_sqrt.o)
 .debug_frame   0x000008f0       0x38 libs/libm.a(lib_a-e_log10.o)
 .debug_frame   0x00000928       0x38 libs/libm.a(lib_a-e_pow.o)
 .debug_frame   0x00000960       0x38 libs/libm.a(lib_a-e_rem_pio2.o)
 .debug_frame   0x00000998       0x3c libs/libm.a(lib_a-e_sqrt.o)
 .debug_frame   0x000009d4       0x30 libs/libm.a(lib_a-ef_log10.o)
 .debug_frame   0x00000a04       0x3c libs/libm.a(lib_a-ef_pow.o)
 .debug_frame   0x00000a40       0x2c libs/libm.a(lib_a-ef_sqrt.o)
 .debug_frame   0x00000a6c       0x40 libs/libm.a(lib_a-k_cos.o)
 .debug_frame   0x00000aac       0x3c libs/libm.a(lib_a-k_rem_pio2.o)
 .debug_frame   0x00000ae8       0x40 libs/libm.a(lib_a-k_sin.o)
 .debug_frame   0x00000b28       0x20 libs/libm.a(lib_a-s_fabs.o)
 .debug_frame   0x00000b48       0x20 libs/libm.a(lib_a-s_finite.o)
 .debug_frame   0x00000b68       0x34 libs/libm.a(lib_a-s_floor.o)
 .debug_frame   0x00000b9c       0x20 libs/libm.a(lib_a-s_fpclassify.o)
 .debug_frame   0x00000bbc       0x20 libs/libm.a(lib_a-s_matherr.o)
 .debug_frame   0x00000bdc       0x20 libs/libm.a(lib_a-s_nan.o)
 .debug_frame   0x00000bfc       0x30 libs/libm.a(lib_a-s_rint.o)
 .debug_frame   0x00000c2c       0x28 libs/libm.a(lib_a-s_scalbn.o)
 .debug_frame   0x00000c54       0x28 libs/libm.a(lib_a-sf_cos.o)
 .debug_frame   0x00000c7c       0x20 libs/libm.a(lib_a-sf_fabs.o)
 .debug_frame   0x00000c9c       0x20 libs/libm.a(lib_a-sf_finite.o)
 .debug_frame   0x00000cbc       0x20 libs/libm.a(lib_a-sf_fpclassify.o)
 .debug_frame   0x00000cdc       0x20 libs/libm.a(lib_a-sf_nan.o)
 .debug_frame   0x00000cfc       0x30 libs/libm.a(lib_a-sf_scalbn.o)
 .debug_frame   0x00000d2c       0x28 libs/libm.a(lib_a-sf_sin.o)
 .debug_frame   0x00000d54       0x38 libs/libm.a(lib_a-e_log.o)
 .debug_frame   0x00000d8c       0x28 libs/libm.a(lib_a-ef_log.o)
 .debug_frame   0x00000db4       0x30 libs/libm.a(lib_a-ef_rem_pio2.o)
 .debug_frame   0x00000de4       0x20 libs/libm.a(lib_a-kf_cos.o)
 .debug_frame   0x00000e04       0x44 libs/libm.a(lib_a-kf_rem_pio2.o)
 .debug_frame   0x00000e48       0x20 libs/libm.a(lib_a-kf_sin.o)
 .debug_frame   0x00000e68       0x28 libs/libm.a(lib_a-s_copysign.o)
 .debug_frame   0x00000e90       0x20 libs/libm.a(lib_a-sf_copysign.o)
 .debug_frame   0x00000eb0       0x20 /usr/lib/gcc/arm-none-eabi/4.8/../../../arm-none-eabi/lib/armv7e-m/fpu/libg.a(lib_a-atexit.o)
 .debug_frame   0x00000ed0       0x20 /usr/lib/gcc/arm-none-eabi/4.8/../../../arm-none-eabi/lib/armv7e-m/fpu/libg.a(lib_a-errno.o)
 .debug_frame   0x00000ef0       0x2c /usr/lib/gcc/arm-none-eabi/4.8/../../../arm-none-eabi/lib/armv7e-m/fpu/libg.a(lib_a-fini.o)
 .debug_frame   0x00000f1c       0x2c /usr/lib/gcc/arm-none-eabi/4.8/../../../arm-none-eabi/lib/armv7e-m/fpu/libg.a(lib_a-memcmp.o)
 .debug_frame   0x00000f48       0x2c /usr/lib/gcc/arm-none-eabi/4.8/../../../arm-none-eabi/lib/armv7e-m/fpu/libg.a(lib_a-memset.o)
 .debug_frame   0x00000f74       0x20 /usr/lib/gcc/arm-none-eabi/4.8/../../../arm-none-eabi/lib/armv7e-m/fpu/libg.a(lib_a-strlen.o)
 .debug_frame   0x00000f94       0x30 /usr/lib/gcc/arm-none-eabi/4.8/../../../arm-none-eabi/lib/armv7e-m/fpu/libg.a(lib_a-__atexit.o)
 .debug_frame   0x00000fc4       0x48 /usr/lib/gcc/arm-none-eabi/4.8/../../../arm-none-eabi/lib/armv7e-m/fpu/libg.a(lib_a-__call_atexit.o)
